; Listing generated by Microsoft (R) Optimizing Compiler Version 19.39.33523.0 

include listing.inc

INCLUDELIB MSVCRTD
INCLUDELIB OLDNAMES

_DATA	SEGMENT
COMM	ThreadHandle_TypeID:BYTE:018H
COMM	Request_TypeID:BYTE:018H
COMM	GlobalBarrelService:BYTE:078H
COMM	GlobalBarrelNodeType:BYTE:018H
COMM	barrelService_ThreadBin:BYTE:0100H
COMM	barrelService_QueBin:BYTE:0200H
_DATA	ENDS
msvcjmc	SEGMENT
__9C67CA7D_tEnums@h DB 01H
__EAEE5CFA_tDefines@h DB 01H
__0ED14FEE_winpackagefamily@h DB 01H
__F92EF742_winapifamily@h DB 01H
__22E515EB_sdkddkver@h DB 01H
__FE09AF47_concurrencysal@h DB 01H
__C073CA79_sal@h DB 01H
__D6AFE870_vadefs@h DB 01H
__D63E96CF_vcruntime@h DB 01H
__514B86D7_excpt@h DB 01H
__9A7D38D9_stdarg@h DB 01H
__29F49F40_specstrings_undef@h DB 01H
__D0F42932_specstrings_strict@h DB 01H
__F00405FD_sdv_driverspecs@h DB 01H
__173E09CA_driverspecs@h DB 01H
__9A452361_specstrings@h DB 01H
__1B0272D9_corecrt@h DB 01H
__74484FB3_corecrt_wctype@h DB 01H
__1EC467ED_ctype@h DB 01H
__98517906_kernelspecs@h DB 01H
__D3497022_basetsd@h DB 01H
__61CC25A1_errno@h DB 01H
__3EADF068_vcruntime_string@h DB 01H
__E4C945B4_corecrt_memcpy_s@h DB 01H
__8EAFF484_corecrt_memory@h DB 01H
__6490AEC5_corecrt_wstring@h DB 01H
__E8295E1E_string@h DB 01H
__7FCB5136_guiddef@h DB 01H
__FF8A9E11_pshpack4@h DB 01H
__D5438902_poppack@h DB 01H
__FB07E2A3_pshpack2@h DB 01H
__F6906775_pshpack8@h DB 01H
__F9415CFA_pshpack1@h DB 01H
__E58C6F1C_apiset@h DB 01H
__A5C52262_ktmtypes@h DB 01H
__FBBA8F9D_winnt@h DB 01H
__A32D3D2C_minwindef@h DB 01H
__7D798299_windef@h DB 01H
__9AE108E9_apisetcconv@h DB 01H
__9CE53D2C_minwinbase@h DB 01H
__5D0AA210_apiquery2@h DB 01H
__4DD4E726_processenv@h DB 01H
__3575CC96_fileapi@h DB 01H
__8EA220E6_fileapifromapp@h DB 01H
__BF9B31FE_debugapi@h DB 01H
__C3AFE134_utilapiset@h DB 01H
__76F69E51_handleapi@h DB 01H
__7E63D784_errhandlingapi@h DB 01H
__FFA7003C_fibersapi@h DB 01H
__8971CECF_namedpipeapi@h DB 01H
__46C9D8A6_profileapi@h DB 01H
__98D4F0A3_heapapi@h DB 01H
__50EF2A88_ioapiset@h DB 01H
__92EA1464_synchapi@h DB 01H
__A53D8AED_interlockedapi@h DB 01H
__B506CAAF_processthreadsapi@h DB 01H
__FF735694_sysinfoapi@h DB 01H
__29589789_memoryapi@h DB 01H
__E9C7A663_enclaveapi@h DB 01H
__D035F9F7_threadpoollegacyapiset@h DB 01H
__C899130C_threadpoolapiset@h DB 01H
__E0441EE7_jobapi@h DB 01H
__CEF86838_jobapi2@h DB 01H
__35AC6B9A_wow64apiset@h DB 01H
__C8AE41A5_libloaderapi@h DB 01H
__CC9E232D_securitybaseapi@h DB 01H
__C9D0C9B8_namespaceapi@h DB 01H
__30FF9CAD_systemtopologyapi@h DB 01H
__4D358795_processtopologyapi@h DB 01H
__40446D10_securityappcontainer@h DB 01H
__3A952EDF_realtimeapiset@h DB 01H
__F4865F4B_winerror@h DB 01H
__53C1BD93_timezoneapi@h DB 01H
__1FFBEDBF_winbase@h DB 01H
__43D3FA34_wingdi@h DB 01H
__D24A7391_tvout@h DB 01H
__7713A6C8_winuser@h DB 01H
__0B345F71_datetimeapi@h DB 01H
__9AC6960C_winnls@h DB 01H
__973A40A8_stringapiset@h DB 01H
__CC46FEE2_wincontypes@h DB 01H
__97D70BE1_consoleapi@h DB 01H
__27EC5E18_consoleapi2@h DB 01H
__262E342F_consoleapi3@h DB 01H
__641DCD70_wincon@h DB 01H
__5A96C7A7_verrsrc@h DB 01H
__B69C6FF2_winver@h DB 01H
__7AEB8C37_reason@h DB 01H
__59F1A8A9_winreg@h DB 01H
__EE0E2B7F_wnnc@h DB 01H
__DCDB7054_winnetwk@h DB 01H
__EDC72EEB_cderr@h DB 01H
__95F9199D_dde@h DB 01H
__66427627_ddeml@h DB 01H
__957C29A0_dlgs@h DB 01H
__12EA15AF_lzexpand@h DB 01H
__62131F15_mmsyscom@h DB 01H
__47E68D49_mciapi@h DB 01H
__5D7DD356_mmiscapi@h DB 01H
__7223D2EF_mmiscapi2@h DB 01H
__A330DBB3_playsoundapi@h DB 01H
__601B366F_mmeapi@h DB 01H
__1134ADD5_timeapi@h DB 01H
__93F2265A_joystickapi@h DB 01H
__DF6EB4E3_mmsystem@h DB 01H
__BD641FCB_nb30@h DB 01H
__DF8704F0_rpcdcep@h DB 01H
__5C6CA7BB_rpcdce@h DB 01H
__853533C4_rpcnsi@h DB 01H
__2D2406C3_rpcnterr@h DB 01H
__64521D71_rpcasync@h DB 01H
__AADCBA08_rpc@h DB 01H
__19E26CFF_shellapi@h DB 01H
__1E9F31D3_winperf@h DB 01H
__832A4112_inaddr@h DB 01H
__32C6F875_winsock@h DB 01H
__7953A3F8_bcrypt@h DB 01H
__E4169492_ncrypt@h DB 01H
__AF3DDDC3_dpapi@h DB 01H
__D1E23BF2_wincrypt@h DB 01H
__82AB4779_winefs@h DB 01H
__1FE431C9_rpcnsip@h DB 01H
__2B741F2D_rpcsal@h DB 01H
__92623256_rpcndr@h DB 01H
__9C18532E_wtypesbase@h DB 01H
__EA2E1D6D_wtypes@h DB 01H
__7DDD9F45_winioctl@h DB 01H
__E550A843_winsmcrd@h DB 01H
__9809C1BA_winscard@h DB 01H
__EA174FA4_prsht@h DB 01H
__0E1BD114_winspool@h DB 01H
__45DED006_corecrt_malloc@h DB 01H
__13F5961F_stddef@h DB 01H
__FD6DBD68_corecrt_search@h DB 01H
__E2E33A61_corecrt_wstdlib@h DB 01H
__10D4A829_limits@h DB 01H
__6E5ACABA_stdlib@h DB 01H
__30B1AFDA_unknwnbase@h DB 01H
__328C1996_objidlbase@h DB 01H
__C4E06B6A_cguid@h DB 01H
__434718C5_combaseapi@h DB 01H
__DE6FDEF1_unknwn@h DB 01H
__CCE0BACC_objidl@h DB 01H
__8C7011E5_oaidl@h DB 01H
__2E0B7863_propidlbase@h DB 01H
__BF4CF2EC_coml2api@h DB 01H
__6D897344_oleidl@h DB 01H
__1129FC2C_servprov@h DB 01H
__757952E4_msxml@h DB 01H
__B1191D53_urlmon@h DB 01H
__404D1A47_propidl@h DB 01H
__A1C63593_objbase@h DB 01H
__C1B0A9CB_oleauto@h DB 01H
__24EAF61F_ole2@h DB 01H
__2B1843DA_commdlg@h DB 01H
__81DDEDE3_stralign@h DB 01H
__2134D1B4_winsvc@h DB 01H
__11C07376_mcx@h DB 01H
__577CE3E7_ime_cmodes@h DB 01H
__1E72C31E_imm@h DB 01H
__63AA7AF5_Windows@h DB 01H
__4EC676C0_tModules@h DB 01H
__AFB9CF29_tPreent@h DB 01H
__366DFDC4_tHelpers@h DB 01H
__D300D227_tTypeInfo@h DB 01H
__03948348_tThreads@h DB 01H
__296E417C_tChunk@h DB 01H
__7CF1EC1E_tCollection@h DB 01H
__FC472216_tVector@h DB 01H
__EAE81D8C_tBucket@h DB 01H
__37B02CEB_tQues@h DB 01H
__978ECD68_tServices@h DB 01H
__FEADC134_tHeap@h DB 01H
__E8DC32E4_tLink@h DB 01H
__CE367354_tBarrel@h DB 01H
__59E4AADC_tBarrel@c DB 01H
msvcjmc	ENDS
PUBLIC	Barrel_RemainingSizeCap
PUBLIC	Barrel_maximumAvailableBarrels
PUBLIC	Barrel_Extensions
PUBLIC	Barrel_GetNode
PUBLIC	Barrel_GetSize
PUBLIC	Barrel_GetHead
PUBLIC	Barrel_GetBarrelPtr
PUBLIC	Barrel_Offset
PUBLIC	Barrel_RollBack
PUBLIC	Barrel_RollForward
PUBLIC	Barrel_Grow
PUBLIC	Barrel_Shrink
PUBLIC	Barrel_Roll
PUBLIC	Barrel_DeltaSize
PUBLIC	Barrel_Resize
PUBLIC	Barrel_GetChunk
PUBLIC	Barrel_Capacity
PUBLIC	Barrel_Manage
PUBLIC	Barrel_Transcribe
PUBLIC	Barrel_Info
PUBLIC	__JustMyCode_Default
EXTRN	barrelTranscribe:PROC
EXTRN	TypeInfo_GetInfo:PROC
EXTRN	Chunk_ctor:PROC
EXTRN	Collection_Request:PROC
EXTRN	Collection_Release:PROC
EXTRN	heap_Remaining:PROC
EXTRN	_RTC_InitBase:PROC
EXTRN	_RTC_Shutdown:PROC
EXTRN	__CheckForDebuggerJustMyCode:PROC
;	COMDAT pdata
pdata	SEGMENT
$pdata$Barrel_RemainingSizeCap DD imagerel $LN3
	DD	imagerel $LN3+86
	DD	imagerel $unwind$Barrel_RemainingSizeCap
pdata	ENDS
;	COMDAT pdata
pdata	SEGMENT
$pdata$Barrel_maximumAvailableBarrels DD imagerel $LN5
	DD	imagerel $LN5+105
	DD	imagerel $unwind$Barrel_maximumAvailableBarrels
pdata	ENDS
;	COMDAT pdata
pdata	SEGMENT
$pdata$Barrel_Extensions DD imagerel $LN9
	DD	imagerel $LN9+203
	DD	imagerel $unwind$Barrel_Extensions
pdata	ENDS
;	COMDAT pdata
pdata	SEGMENT
$pdata$Barrel_GetNode DD imagerel $LN7
	DD	imagerel $LN7+151
	DD	imagerel $unwind$Barrel_GetNode
pdata	ENDS
;	COMDAT pdata
pdata	SEGMENT
$pdata$Barrel_GetSize DD imagerel $LN3
	DD	imagerel $LN3+55
	DD	imagerel $unwind$Barrel_GetSize
pdata	ENDS
;	COMDAT pdata
pdata	SEGMENT
$pdata$Barrel_GetHead DD imagerel $LN3
	DD	imagerel $LN3+67
	DD	imagerel $unwind$Barrel_GetHead
pdata	ENDS
;	COMDAT pdata
pdata	SEGMENT
$pdata$Barrel_GetBarrelPtr DD imagerel $LN3
	DD	imagerel $LN3+61
	DD	imagerel $unwind$Barrel_GetBarrelPtr
pdata	ENDS
;	COMDAT pdata
pdata	SEGMENT
$pdata$Barrel_Offset DD imagerel $LN7
	DD	imagerel $LN7+182
	DD	imagerel $unwind$Barrel_Offset
pdata	ENDS
;	COMDAT pdata
pdata	SEGMENT
$pdata$Barrel_RollBack DD imagerel $LN6
	DD	imagerel $LN6+215
	DD	imagerel $unwind$Barrel_RollBack
pdata	ENDS
;	COMDAT pdata
pdata	SEGMENT
$pdata$Barrel_RollForward DD imagerel $LN6
	DD	imagerel $LN6+173
	DD	imagerel $unwind$Barrel_RollForward
pdata	ENDS
;	COMDAT pdata
pdata	SEGMENT
$pdata$Barrel_Grow DD imagerel $LN7
	DD	imagerel $LN7+227
	DD	imagerel $unwind$Barrel_Grow
pdata	ENDS
;	COMDAT pdata
pdata	SEGMENT
$pdata$Barrel_Shrink DD imagerel $LN13
	DD	imagerel $LN13+342
	DD	imagerel $unwind$Barrel_Shrink
pdata	ENDS
;	COMDAT pdata
pdata	SEGMENT
$pdata$Barrel_Roll DD imagerel $LN9
	DD	imagerel $LN9+236
	DD	imagerel $unwind$Barrel_Roll
pdata	ENDS
;	COMDAT pdata
pdata	SEGMENT
$pdata$Barrel_DeltaSize DD imagerel $LN17
	DD	imagerel $LN17+560
	DD	imagerel $unwind$Barrel_DeltaSize
pdata	ENDS
;	COMDAT pdata
pdata	SEGMENT
$pdata$Barrel_Resize DD imagerel $LN3
	DD	imagerel $LN3+168
	DD	imagerel $unwind$Barrel_Resize
pdata	ENDS
;	COMDAT pdata
pdata	SEGMENT
$pdata$Barrel_GetChunk DD imagerel $LN3
	DD	imagerel $LN3+107
	DD	imagerel $unwind$Barrel_GetChunk
pdata	ENDS
;	COMDAT pdata
pdata	SEGMENT
$pdata$Barrel_Capacity DD imagerel $LN3
	DD	imagerel $LN3+90
	DD	imagerel $unwind$Barrel_Capacity
pdata	ENDS
;	COMDAT pdata
pdata	SEGMENT
$pdata$Barrel_Manage DD imagerel $LN9
	DD	imagerel $LN9+181
	DD	imagerel $unwind$Barrel_Manage
pdata	ENDS
;	COMDAT pdata
pdata	SEGMENT
$pdata$Barrel_Transcribe DD imagerel $LN3
	DD	imagerel $LN3+41
	DD	imagerel $unwind$Barrel_Transcribe
pdata	ENDS
;	COMDAT pdata
pdata	SEGMENT
$pdata$Barrel_Info DD imagerel $LN10
	DD	imagerel $LN10+254
	DD	imagerel $unwind$Barrel_Info
pdata	ENDS
;	COMDAT rtc$TMZ
rtc$TMZ	SEGMENT
_RTC_Shutdown.rtc$TMZ DQ FLAT:_RTC_Shutdown
rtc$TMZ	ENDS
;	COMDAT rtc$IMZ
rtc$IMZ	SEGMENT
_RTC_InitBase.rtc$IMZ DQ FLAT:_RTC_InitBase
rtc$IMZ	ENDS
;	COMDAT xdata
xdata	SEGMENT
$unwind$Barrel_Info DD 025061401H
	DD	010f2314H
	DD	07008002eH
	DD	050066007H
xdata	ENDS
;	COMDAT xdata
xdata	SEGMENT
$unwind$Barrel_Transcribe DD 025051301H
	DD	010e2313H
	DD	07007001dH
	DD	05006H
xdata	ENDS
;	COMDAT xdata
xdata	SEGMENT
$unwind$Barrel_Manage DD 025051301H
	DD	010e2313H
	DD	070070025H
	DD	05006H
xdata	ENDS
;	COMDAT xdata
xdata	SEGMENT
$unwind$Barrel_Capacity DD 025051301H
	DD	010e2313H
	DD	070070025H
	DD	05006H
xdata	ENDS
;	COMDAT xdata
xdata	SEGMENT
$unwind$Barrel_GetChunk DD 025051801H
	DD	01132318H
	DD	0700c001fH
	DD	0500bH
xdata	ENDS
;	COMDAT xdata
xdata	SEGMENT
$unwind$Barrel_Resize DD 025061401H
	DD	010f2314H
	DD	070080026H
	DD	050066007H
xdata	ENDS
;	COMDAT xdata
xdata	SEGMENT
$unwind$Barrel_DeltaSize DD 025051301H
	DD	010e2313H
	DD	07007003bH
	DD	05006H
xdata	ENDS
;	COMDAT xdata
xdata	SEGMENT
$unwind$Barrel_Roll DD 025051701H
	DD	01122317H
	DD	0700b001dH
	DD	0500aH
xdata	ENDS
;	COMDAT xdata
xdata	SEGMENT
$unwind$Barrel_Shrink DD 025051701H
	DD	01122317H
	DD	0700b0029H
	DD	0500aH
xdata	ENDS
;	COMDAT xdata
xdata	SEGMENT
$unwind$Barrel_Grow DD 025051701H
	DD	01122317H
	DD	0700b0029H
	DD	0500aH
xdata	ENDS
;	COMDAT xdata
xdata	SEGMENT
$unwind$Barrel_RollForward DD 025051701H
	DD	01122317H
	DD	0700b0021H
	DD	0500aH
xdata	ENDS
;	COMDAT xdata
xdata	SEGMENT
$unwind$Barrel_RollBack DD 025051701H
	DD	01122317H
	DD	0700b0021H
	DD	0500aH
xdata	ENDS
;	COMDAT xdata
xdata	SEGMENT
$unwind$Barrel_Offset DD 025051701H
	DD	01122317H
	DD	0700b001fH
	DD	0500aH
xdata	ENDS
;	COMDAT xdata
xdata	SEGMENT
$unwind$Barrel_GetBarrelPtr DD 025051201H
	DD	010d2312H
	DD	07006001dH
	DD	05005H
xdata	ENDS
;	COMDAT xdata
xdata	SEGMENT
$unwind$Barrel_GetHead DD 025051301H
	DD	010e2313H
	DD	07007001dH
	DD	05006H
xdata	ENDS
;	COMDAT xdata
xdata	SEGMENT
$unwind$Barrel_GetSize DD 025051301H
	DD	010e2313H
	DD	07007001dH
	DD	05006H
xdata	ENDS
;	COMDAT xdata
xdata	SEGMENT
$unwind$Barrel_GetNode DD 025051201H
	DD	010d2312H
	DD	07006001fH
	DD	05005H
xdata	ENDS
;	COMDAT xdata
xdata	SEGMENT
$unwind$Barrel_Extensions DD 025061401H
	DD	010f2314H
	DD	07008002eH
	DD	050066007H
xdata	ENDS
;	COMDAT xdata
xdata	SEGMENT
$unwind$Barrel_maximumAvailableBarrels DD 025051201H
	DD	010d2312H
	DD	070060021H
	DD	05005H
xdata	ENDS
;	COMDAT xdata
xdata	SEGMENT
$unwind$Barrel_RemainingSizeCap DD 025051301H
	DD	010e2313H
	DD	07007001dH
	DD	05006H
xdata	ENDS
; Function compile flags: /Odt
;	COMDAT __JustMyCode_Default
_TEXT	SEGMENT
__JustMyCode_Default PROC				; COMDAT
  00000	c2 00 00	 ret	 0
__JustMyCode_Default ENDP
_TEXT	ENDS
; Function compile flags: /Odtp /RTCsu /ZI
; File C:\Repos\BarrelTest\tBarrel.c
;	COMDAT Barrel_Info
_TEXT	SEGMENT
barrelNode$ = 8
var$ = 36
output$ = 72
$T1 = 304
tv73 = 324
request$ = 368
Barrel_Info PROC					; COMDAT

; 390  : inline bool Barrel_Info(REQUEST request) {

$LN10:
  00000	48 89 4c 24 08	 mov	 QWORD PTR [rsp+8], rcx
  00005	55		 push	 rbp
  00006	56		 push	 rsi
  00007	57		 push	 rdi
  00008	48 81 ec 70 01
	00 00		 sub	 rsp, 368		; 00000170H
  0000f	48 8d 6c 24 20	 lea	 rbp, QWORD PTR [rsp+32]
  00014	48 8d 0d 00 00
	00 00		 lea	 rcx, OFFSET FLAT:__59E4AADC_tBarrel@c
  0001b	e8 00 00 00 00	 call	 __CheckForDebuggerJustMyCode

; 391  : 	BarrelNode* barrelNode = request._params[tSRC];

  00020	b8 08 00 00 00	 mov	 eax, 8
  00025	48 6b c0 02	 imul	 rax, rax, 2
  00029	48 8b 8d 70 01
	00 00		 mov	 rcx, QWORD PTR request$[rbp]
  00030	48 8b 49 08	 mov	 rcx, QWORD PTR [rcx+8]
  00034	48 8b 04 08	 mov	 rax, QWORD PTR [rax+rcx]
  00038	48 89 45 08	 mov	 QWORD PTR barrelNode$[rbp], rax

; 392  : 	ParamType var = (ParamType)request._params[tVARIANT];

  0003c	b8 08 00 00 00	 mov	 eax, 8
  00041	48 6b c0 00	 imul	 rax, rax, 0
  00045	48 8b 8d 70 01
	00 00		 mov	 rcx, QWORD PTR request$[rbp]
  0004c	48 8b 49 08	 mov	 rcx, QWORD PTR [rcx+8]
  00050	8b 04 08	 mov	 eax, DWORD PTR [rax+rcx]
  00053	89 45 24	 mov	 DWORD PTR var$[rbp], eax

; 393  : 	void* output = request._params[tTRG];

  00056	b8 08 00 00 00	 mov	 eax, 8
  0005b	48 6b c0 01	 imul	 rax, rax, 1
  0005f	48 8b 8d 70 01
	00 00		 mov	 rcx, QWORD PTR request$[rbp]
  00066	48 8b 49 08	 mov	 rcx, QWORD PTR [rcx+8]
  0006a	48 8b 04 08	 mov	 rax, QWORD PTR [rax+rcx]
  0006e	48 89 45 48	 mov	 QWORD PTR output$[rbp], rax

; 394  : 
; 395  : 	switch (var) {

  00072	8b 45 24	 mov	 eax, DWORD PTR var$[rbp]
  00075	89 85 44 01 00
	00		 mov	 DWORD PTR tv73[rbp], eax
  0007b	83 bd 44 01 00
	00 06		 cmp	 DWORD PTR tv73[rbp], 6
  00082	74 47		 je	 SHORT $LN7@Barrel_Inf
  00084	83 bd 44 01 00
	00 07		 cmp	 DWORD PTR tv73[rbp], 7
  0008b	74 14		 je	 SHORT $LN4@Barrel_Inf
  0008d	83 bd 44 01 00
	00 08		 cmp	 DWORD PTR tv73[rbp], 8
  00094	74 1f		 je	 SHORT $LN5@Barrel_Inf
  00096	83 bd 44 01 00
	00 09		 cmp	 DWORD PTR tv73[rbp], 9
  0009d	74 2c		 je	 SHORT $LN6@Barrel_Inf
  0009f	eb 50		 jmp	 SHORT $LN8@Barrel_Inf
$LN4@Barrel_Inf:

; 396  : 
; 397  : 	case tCOUNT:
; 398  : 		*((uint*)output) = barrelNode->_collection._count;

  000a1	48 8b 45 48	 mov	 rax, QWORD PTR output$[rbp]
  000a5	48 8b 4d 08	 mov	 rcx, QWORD PTR barrelNode$[rbp]
  000a9	8b 49 08	 mov	 ecx, DWORD PTR [rcx+8]
  000ac	89 08		 mov	 DWORD PTR [rax], ecx

; 399  : 		return true;

  000ae	b8 01 00 00 00	 mov	 eax, 1
  000b3	eb 3e		 jmp	 SHORT $LN1@Barrel_Inf
$LN5@Barrel_Inf:

; 400  : 
; 401  : 	case tCAPACITY:
; 402  : 		*((uint*)output) = Barrel_Capacity(barrelNode);

  000b5	48 8b 4d 08	 mov	 rcx, QWORD PTR barrelNode$[rbp]
  000b9	e8 00 00 00 00	 call	 Barrel_Capacity
  000be	48 8b 4d 48	 mov	 rcx, QWORD PTR output$[rbp]
  000c2	89 01		 mov	 DWORD PTR [rcx], eax

; 403  : 		return true;

  000c4	b8 01 00 00 00	 mov	 eax, 1
  000c9	eb 28		 jmp	 SHORT $LN1@Barrel_Inf
$LN6@Barrel_Inf:
$LN7@Barrel_Inf:

; 404  : 
; 405  : 	case tNAME:
; 406  : 	case tSIZE:
; 407  : 		return TypeInfo_GetInfo(request);

  000cb	48 8d 85 30 01
	00 00		 lea	 rax, QWORD PTR $T1[rbp]
  000d2	48 8b f8	 mov	 rdi, rax
  000d5	48 8b b5 70 01
	00 00		 mov	 rsi, QWORD PTR request$[rbp]
  000dc	b9 10 00 00 00	 mov	 ecx, 16
  000e1	f3 a4		 rep movsb
  000e3	48 8d 8d 30 01
	00 00		 lea	 rcx, QWORD PTR $T1[rbp]
  000ea	e8 00 00 00 00	 call	 TypeInfo_GetInfo
  000ef	eb 02		 jmp	 SHORT $LN1@Barrel_Inf
$LN8@Barrel_Inf:

; 408  : 
; 409  : 	default:
; 410  : 		return false;

  000f1	33 c0		 xor	 eax, eax
$LN1@Barrel_Inf:

; 411  : 	}
; 412  : }

  000f3	48 8d a5 50 01
	00 00		 lea	 rsp, QWORD PTR [rbp+336]
  000fa	5f		 pop	 rdi
  000fb	5e		 pop	 rsi
  000fc	5d		 pop	 rbp
  000fd	c3		 ret	 0
Barrel_Info ENDP
_TEXT	ENDS
; Function compile flags: /Odtp /RTCsu /ZI
; File C:\Repos\BarrelTest\tBarrel.c
;	COMDAT Barrel_Transcribe
_TEXT	SEGMENT
request$ = 224
Barrel_Transcribe PROC					; COMDAT

; 386  : inline bool Barrel_Transcribe(REQUEST request) {

$LN3:
  00000	48 89 4c 24 08	 mov	 QWORD PTR [rsp+8], rcx
  00005	55		 push	 rbp
  00006	57		 push	 rdi
  00007	48 81 ec e8 00
	00 00		 sub	 rsp, 232		; 000000e8H
  0000e	48 8d 6c 24 20	 lea	 rbp, QWORD PTR [rsp+32]
  00013	48 8d 0d 00 00
	00 00		 lea	 rcx, OFFSET FLAT:__59E4AADC_tBarrel@c
  0001a	e8 00 00 00 00	 call	 __CheckForDebuggerJustMyCode

; 387  : 
; 388  : }

  0001f	48 8d a5 c8 00
	00 00		 lea	 rsp, QWORD PTR [rbp+200]
  00026	5f		 pop	 rdi
  00027	5d		 pop	 rbp
  00028	c3		 ret	 0
Barrel_Transcribe ENDP
_TEXT	ENDS
; Function compile flags: /Odtp /RTCsu /ZI
; File C:\Repos\BarrelTest\tBarrel.c
;	COMDAT Barrel_Manage
_TEXT	SEGMENT
var$ = 4
barrelNode$ = 40
tv70 = 244
request$ = 288
Barrel_Manage PROC					; COMDAT

; 366  : inline bool Barrel_Manage(REQUEST request) {

$LN9:
  00000	48 89 4c 24 08	 mov	 QWORD PTR [rsp+8], rcx
  00005	55		 push	 rbp
  00006	57		 push	 rdi
  00007	48 81 ec 28 01
	00 00		 sub	 rsp, 296		; 00000128H
  0000e	48 8d 6c 24 20	 lea	 rbp, QWORD PTR [rsp+32]
  00013	48 8d 0d 00 00
	00 00		 lea	 rcx, OFFSET FLAT:__59E4AADC_tBarrel@c
  0001a	e8 00 00 00 00	 call	 __CheckForDebuggerJustMyCode

; 367  : 	ParamType var = (ParamType)request._params[tVARIANT];

  0001f	b8 08 00 00 00	 mov	 eax, 8
  00024	48 6b c0 00	 imul	 rax, rax, 0
  00028	48 8b 8d 20 01
	00 00		 mov	 rcx, QWORD PTR request$[rbp]
  0002f	48 8b 49 08	 mov	 rcx, QWORD PTR [rcx+8]
  00033	8b 04 08	 mov	 eax, DWORD PTR [rax+rcx]
  00036	89 45 04	 mov	 DWORD PTR var$[rbp], eax

; 368  : 	BarrelNode* barrelNode = request._params[tSRC];

  00039	b8 08 00 00 00	 mov	 eax, 8
  0003e	48 6b c0 02	 imul	 rax, rax, 2
  00042	48 8b 8d 20 01
	00 00		 mov	 rcx, QWORD PTR request$[rbp]
  00049	48 8b 49 08	 mov	 rcx, QWORD PTR [rcx+8]
  0004d	48 8b 04 08	 mov	 rax, QWORD PTR [rax+rcx]
  00051	48 89 45 28	 mov	 QWORD PTR barrelNode$[rbp], rax

; 369  : 
; 370  : 	switch (var)

  00055	8b 45 04	 mov	 eax, DWORD PTR var$[rbp]
  00058	89 85 f4 00 00
	00		 mov	 DWORD PTR tv70[rbp], eax
  0005e	83 bd f4 00 00
	00 05		 cmp	 DWORD PTR tv70[rbp], 5
  00065	74 14		 je	 SHORT $LN4@Barrel_Man
  00067	83 bd f4 00 00
	00 09		 cmp	 DWORD PTR tv70[rbp], 9
  0006e	74 2e		 je	 SHORT $LN5@Barrel_Man
  00070	83 bd f4 00 00
	00 0f		 cmp	 DWORD PTR tv70[rbp], 15
  00077	74 30		 je	 SHORT $LN6@Barrel_Man
  00079	eb 2e		 jmp	 SHORT $LN7@Barrel_Man
$LN4@Barrel_Man:

; 371  : 	{
; 372  : 	case tCHUNK:
; 373  : 		return Barrel_GetChunk(barrelNode, request._params[tTRG]);

  0007b	b8 08 00 00 00	 mov	 eax, 8
  00080	48 6b c0 01	 imul	 rax, rax, 1
  00084	48 8b 8d 20 01
	00 00		 mov	 rcx, QWORD PTR request$[rbp]
  0008b	48 8b 49 08	 mov	 rcx, QWORD PTR [rcx+8]
  0008f	48 8b 14 01	 mov	 rdx, QWORD PTR [rcx+rax]
  00093	48 8b 4d 28	 mov	 rcx, QWORD PTR barrelNode$[rbp]
  00097	e8 00 00 00 00	 call	 Barrel_GetChunk
  0009c	eb 0d		 jmp	 SHORT $LN1@Barrel_Man
$LN5@Barrel_Man:

; 374  : 
; 375  : 	case tRELEASE:
; 376  : 		return Collection_Release(barrelNode);

  0009e	48 8b 4d 28	 mov	 rcx, QWORD PTR barrelNode$[rbp]
  000a2	e8 00 00 00 00	 call	 Collection_Release
  000a7	eb 02		 jmp	 SHORT $LN1@Barrel_Man
$LN6@Barrel_Man:
$LN7@Barrel_Man:

; 377  : 
; 378  : 	case INSERT:
; 379  : 
; 380  : 
; 381  : 	default:
; 382  : 		return false;

  000a9	33 c0		 xor	 eax, eax
$LN1@Barrel_Man:

; 383  : 	}
; 384  : }

  000ab	48 8d a5 08 01
	00 00		 lea	 rsp, QWORD PTR [rbp+264]
  000b2	5f		 pop	 rdi
  000b3	5d		 pop	 rbp
  000b4	c3		 ret	 0
Barrel_Manage ENDP
_TEXT	ENDS
; Function compile flags: /Odtp /RTCsu /ZI
; File C:\Repos\BarrelTest\tBarrel.c
;	COMDAT Barrel_Capacity
_TEXT	SEGMENT
unitSize$ = 8
memSize$ = 40
node$ = 288
Barrel_Capacity PROC					; COMDAT

; 360  : uint Barrel_Capacity(BarrelNode* node) {

$LN3:
  00000	48 89 4c 24 08	 mov	 QWORD PTR [rsp+8], rcx
  00005	55		 push	 rbp
  00006	57		 push	 rdi
  00007	48 81 ec 28 01
	00 00		 sub	 rsp, 296		; 00000128H
  0000e	48 8d 6c 24 20	 lea	 rbp, QWORD PTR [rsp+32]
  00013	48 8d 0d 00 00
	00 00		 lea	 rcx, OFFSET FLAT:__59E4AADC_tBarrel@c
  0001a	e8 00 00 00 00	 call	 __CheckForDebuggerJustMyCode

; 361  : 	size_t unitSize = node->_collection._extensions->_type->_size;

  0001f	48 8b 85 20 01
	00 00		 mov	 rax, QWORD PTR node$[rbp]
  00026	48 8b 00	 mov	 rax, QWORD PTR [rax]
  00029	48 8b 00	 mov	 rax, QWORD PTR [rax]
  0002c	48 8b 40 08	 mov	 rax, QWORD PTR [rax+8]
  00030	48 89 45 08	 mov	 QWORD PTR unitSize$[rbp], rax

; 362  : 	size_t memSize = node->_barrelCount * sizeof(Barrel);

  00034	48 8b 85 20 01
	00 00		 mov	 rax, QWORD PTR node$[rbp]
  0003b	8b 40 10	 mov	 eax, DWORD PTR [rax+16]
  0003e	48 6b c0 20	 imul	 rax, rax, 32		; 00000020H
  00042	48 89 45 28	 mov	 QWORD PTR memSize$[rbp], rax

; 363  : 	return memSize / unitSize;

  00046	33 d2		 xor	 edx, edx
  00048	48 8b 45 28	 mov	 rax, QWORD PTR memSize$[rbp]
  0004c	48 f7 75 08	 div	 QWORD PTR unitSize$[rbp]

; 364  : }

  00050	48 8d a5 08 01
	00 00		 lea	 rsp, QWORD PTR [rbp+264]
  00057	5f		 pop	 rdi
  00058	5d		 pop	 rbp
  00059	c3		 ret	 0
Barrel_Capacity ENDP
_TEXT	ENDS
; Function compile flags: /Odtp /RTCsu /ZI
; File C:\Repos\BarrelTest\tBarrel.c
;	COMDAT Barrel_GetChunk
_TEXT	SEGMENT
tv64 = 192
node$ = 240
loc$ = 248
Barrel_GetChunk PROC					; COMDAT

; 355  : bool Barrel_GetChunk(BarrelNode* node, Chunk* loc) {

$LN3:
  00000	48 89 54 24 10	 mov	 QWORD PTR [rsp+16], rdx
  00005	48 89 4c 24 08	 mov	 QWORD PTR [rsp+8], rcx
  0000a	55		 push	 rbp
  0000b	57		 push	 rdi
  0000c	48 81 ec f8 00
	00 00		 sub	 rsp, 248		; 000000f8H
  00013	48 8d 6c 24 20	 lea	 rbp, QWORD PTR [rsp+32]
  00018	48 8d 0d 00 00
	00 00		 lea	 rcx, OFFSET FLAT:__59E4AADC_tBarrel@c
  0001f	e8 00 00 00 00	 call	 __CheckForDebuggerJustMyCode

; 356  : 	Chunk_ctor(loc, Barrel_GetHead(node), Barrel_GetSize(node));

  00024	48 8b 8d f0 00
	00 00		 mov	 rcx, QWORD PTR node$[rbp]
  0002b	e8 00 00 00 00	 call	 Barrel_GetSize
  00030	48 89 85 c0 00
	00 00		 mov	 QWORD PTR tv64[rbp], rax
  00037	48 8b 8d f0 00
	00 00		 mov	 rcx, QWORD PTR node$[rbp]
  0003e	e8 00 00 00 00	 call	 Barrel_GetHead
  00043	48 8b 8d c0 00
	00 00		 mov	 rcx, QWORD PTR tv64[rbp]
  0004a	4c 8b c1	 mov	 r8, rcx
  0004d	48 8b d0	 mov	 rdx, rax
  00050	48 8b 8d f8 00
	00 00		 mov	 rcx, QWORD PTR loc$[rbp]
  00057	e8 00 00 00 00	 call	 Chunk_ctor

; 357  : 	return true;

  0005c	b8 01 00 00 00	 mov	 eax, 1

; 358  : }

  00061	48 8d a5 d8 00
	00 00		 lea	 rsp, QWORD PTR [rbp+216]
  00068	5f		 pop	 rdi
  00069	5d		 pop	 rbp
  0006a	c3		 ret	 0
Barrel_GetChunk ENDP
_TEXT	ENDS
; Function compile flags: /Odtp /RTCsu /ZI
; File C:\Repos\BarrelTest\tBarrel.c
;	COMDAT Barrel_Resize
_TEXT	SEGMENT
node$ = 8
$T1 = 240
request$ = 304
Barrel_Resize PROC					; COMDAT

; 207  : bool Barrel_Resize(REQUEST request) {

$LN3:
  00000	48 89 4c 24 08	 mov	 QWORD PTR [rsp+8], rcx
  00005	55		 push	 rbp
  00006	56		 push	 rsi
  00007	57		 push	 rdi
  00008	48 81 ec 30 01
	00 00		 sub	 rsp, 304		; 00000130H
  0000f	48 8d 6c 24 20	 lea	 rbp, QWORD PTR [rsp+32]
  00014	48 8d 0d 00 00
	00 00		 lea	 rcx, OFFSET FLAT:__59E4AADC_tBarrel@c
  0001b	e8 00 00 00 00	 call	 __CheckForDebuggerJustMyCode

; 208  : 	BarrelNode* node = request._params[tTRG];

  00020	b8 08 00 00 00	 mov	 eax, 8
  00025	48 6b c0 01	 imul	 rax, rax, 1
  00029	48 8b 8d 30 01
	00 00		 mov	 rcx, QWORD PTR request$[rbp]
  00030	48 8b 49 08	 mov	 rcx, QWORD PTR [rcx+8]
  00034	48 8b 04 08	 mov	 rax, QWORD PTR [rax+rcx]
  00038	48 89 45 08	 mov	 QWORD PTR node$[rbp], rax

; 209  : 	*((uint*)request._params[tCOUNT]) -= node->_collection._count;

  0003c	b8 08 00 00 00	 mov	 eax, 8
  00041	48 6b c0 07	 imul	 rax, rax, 7
  00045	48 8b 8d 30 01
	00 00		 mov	 rcx, QWORD PTR request$[rbp]
  0004c	48 8b 49 08	 mov	 rcx, QWORD PTR [rcx+8]
  00050	48 8b 04 08	 mov	 rax, QWORD PTR [rax+rcx]
  00054	48 8b 4d 08	 mov	 rcx, QWORD PTR node$[rbp]
  00058	8b 49 08	 mov	 ecx, DWORD PTR [rcx+8]
  0005b	8b 00		 mov	 eax, DWORD PTR [rax]
  0005d	2b c1		 sub	 eax, ecx
  0005f	b9 08 00 00 00	 mov	 ecx, 8
  00064	48 6b c9 07	 imul	 rcx, rcx, 7
  00068	48 8b 95 30 01
	00 00		 mov	 rdx, QWORD PTR request$[rbp]
  0006f	48 8b 52 08	 mov	 rdx, QWORD PTR [rdx+8]
  00073	48 8b 0c 11	 mov	 rcx, QWORD PTR [rcx+rdx]
  00077	89 01		 mov	 DWORD PTR [rcx], eax

; 210  : 	return Barrel_DeltaSize(request);

  00079	48 8d 85 f0 00
	00 00		 lea	 rax, QWORD PTR $T1[rbp]
  00080	48 8b f8	 mov	 rdi, rax
  00083	48 8b b5 30 01
	00 00		 mov	 rsi, QWORD PTR request$[rbp]
  0008a	b9 10 00 00 00	 mov	 ecx, 16
  0008f	f3 a4		 rep movsb
  00091	48 8d 8d f0 00
	00 00		 lea	 rcx, QWORD PTR $T1[rbp]
  00098	e8 00 00 00 00	 call	 Barrel_DeltaSize

; 211  : }

  0009d	48 8d a5 10 01
	00 00		 lea	 rsp, QWORD PTR [rbp+272]
  000a4	5f		 pop	 rdi
  000a5	5e		 pop	 rsi
  000a6	5d		 pop	 rbp
  000a7	c3		 ret	 0
Barrel_Resize ENDP
_TEXT	ENDS
; Function compile flags: /Odtp /RTCsu /ZI
; File C:\Repos\BarrelTest\tBarrel.c
;	COMDAT Barrel_DeltaSize
_TEXT	SEGMENT
unitDelta$ = 4
node$ = 40
unitSize$ = 72
deltaMag$ = 100
remainingCapacity$ = 136
deltaSize$ = 168
barrelDelta$ = 196
tv90 = 404
tv76 = 404
tv132 = 408
tv131 = 416
request$ = 464
Barrel_DeltaSize PROC					; COMDAT

; 159  : {

$LN17:
  00000	48 89 4c 24 08	 mov	 QWORD PTR [rsp+8], rcx
  00005	55		 push	 rbp
  00006	57		 push	 rdi
  00007	48 81 ec d8 01
	00 00		 sub	 rsp, 472		; 000001d8H
  0000e	48 8d 6c 24 20	 lea	 rbp, QWORD PTR [rsp+32]
  00013	48 8d 0d 00 00
	00 00		 lea	 rcx, OFFSET FLAT:__59E4AADC_tBarrel@c
  0001a	e8 00 00 00 00	 call	 __CheckForDebuggerJustMyCode

; 160  : 	int unitDelta = (int)(request._params[tCOUNT]);

  0001f	b8 08 00 00 00	 mov	 eax, 8
  00024	48 6b c0 07	 imul	 rax, rax, 7
  00028	48 8b 8d d0 01
	00 00		 mov	 rcx, QWORD PTR request$[rbp]
  0002f	48 8b 49 08	 mov	 rcx, QWORD PTR [rcx+8]
  00033	8b 04 08	 mov	 eax, DWORD PTR [rax+rcx]
  00036	89 45 04	 mov	 DWORD PTR unitDelta$[rbp], eax

; 161  : 	BarrelNode* node = request._params[tTRG];

  00039	b8 08 00 00 00	 mov	 eax, 8
  0003e	48 6b c0 01	 imul	 rax, rax, 1
  00042	48 8b 8d d0 01
	00 00		 mov	 rcx, QWORD PTR request$[rbp]
  00049	48 8b 49 08	 mov	 rcx, QWORD PTR [rcx+8]
  0004d	48 8b 04 08	 mov	 rax, QWORD PTR [rax+rcx]
  00051	48 89 45 28	 mov	 QWORD PTR node$[rbp], rax

; 162  : 	size_t unitSize = node->_collection._extensions->_type->_size;

  00055	48 8b 45 28	 mov	 rax, QWORD PTR node$[rbp]
  00059	48 8b 00	 mov	 rax, QWORD PTR [rax]
  0005c	48 8b 00	 mov	 rax, QWORD PTR [rax]
  0005f	48 8b 40 08	 mov	 rax, QWORD PTR [rax+8]
  00063	48 89 45 48	 mov	 QWORD PTR unitSize$[rbp], rax

; 163  : 	
; 164  : 	// no action needed
; 165  : 	if (unitDelta == 0)

  00067	83 7d 04 00	 cmp	 DWORD PTR unitDelta$[rbp], 0
  0006b	75 0a		 jne	 SHORT $LN2@Barrel_Del

; 166  : 		return true;

  0006d	b8 01 00 00 00	 mov	 eax, 1
  00072	e9 af 01 00 00	 jmp	 $LN1@Barrel_Del
$LN2@Barrel_Del:

; 167  : 
; 168  : 	int deltaMag = unitDelta < 0 ? -unitDelta : unitDelta;

  00077	83 7d 04 00	 cmp	 DWORD PTR unitDelta$[rbp], 0
  0007b	7d 0d		 jge	 SHORT $LN9@Barrel_Del
  0007d	8b 45 04	 mov	 eax, DWORD PTR unitDelta$[rbp]
  00080	f7 d8		 neg	 eax
  00082	89 85 94 01 00
	00		 mov	 DWORD PTR tv76[rbp], eax
  00088	eb 09		 jmp	 SHORT $LN10@Barrel_Del
$LN9@Barrel_Del:
  0008a	8b 45 04	 mov	 eax, DWORD PTR unitDelta$[rbp]
  0008d	89 85 94 01 00
	00		 mov	 DWORD PTR tv76[rbp], eax
$LN10@Barrel_Del:
  00093	8b 85 94 01 00
	00		 mov	 eax, DWORD PTR tv76[rbp]
  00099	89 45 64	 mov	 DWORD PTR deltaMag$[rbp], eax

; 169  : 
; 170  : 	size_t remainingCapacity = Barrel_RemainingSizeCap(node);

  0009c	48 8b 4d 28	 mov	 rcx, QWORD PTR node$[rbp]
  000a0	e8 00 00 00 00	 call	 Barrel_RemainingSizeCap
  000a5	48 89 85 88 00
	00 00		 mov	 QWORD PTR remainingCapacity$[rbp], rax

; 171  : 	size_t deltaSize = deltaMag * node->_collection._extensions->_type->_size;

  000ac	48 63 45 64	 movsxd	 rax, DWORD PTR deltaMag$[rbp]
  000b0	48 8b 4d 28	 mov	 rcx, QWORD PTR node$[rbp]
  000b4	48 8b 09	 mov	 rcx, QWORD PTR [rcx]
  000b7	48 8b 09	 mov	 rcx, QWORD PTR [rcx]
  000ba	48 0f af 41 08	 imul	 rax, QWORD PTR [rcx+8]
  000bf	48 89 85 a8 00
	00 00		 mov	 QWORD PTR deltaSize$[rbp], rax

; 172  : 
; 173  : 	// determine initial block 'delta', rounding up if positive, to cover any trailing elements
; 174  : 	int barrelDelta =

  000c6	83 7d 04 00	 cmp	 DWORD PTR unitDelta$[rbp], 0
  000ca	7e 6d		 jle	 SHORT $LN15@Barrel_Del
  000cc	48 8b 85 88 00
	00 00		 mov	 rax, QWORD PTR remainingCapacity$[rbp]
  000d3	48 8b 8d a8 00
	00 00		 mov	 rcx, QWORD PTR deltaSize$[rbp]
  000da	48 2b c8	 sub	 rcx, rax
  000dd	48 8b c1	 mov	 rax, rcx
  000e0	33 d2		 xor	 edx, edx
  000e2	b9 20 00 00 00	 mov	 ecx, 32			; 00000020H
  000e7	48 f7 f1	 div	 rcx
  000ea	48 8b c2	 mov	 rax, rdx
  000ed	48 85 c0	 test	 rax, rax
  000f0	76 0c		 jbe	 SHORT $LN11@Barrel_Del
  000f2	c7 85 94 01 00
	00 01 00 00 00	 mov	 DWORD PTR tv90[rbp], 1
  000fc	eb 0a		 jmp	 SHORT $LN12@Barrel_Del
$LN11@Barrel_Del:
  000fe	c7 85 94 01 00
	00 00 00 00 00	 mov	 DWORD PTR tv90[rbp], 0
$LN12@Barrel_Del:
  00108	48 8b 85 88 00
	00 00		 mov	 rax, QWORD PTR remainingCapacity$[rbp]
  0010f	48 8b 8d a8 00
	00 00		 mov	 rcx, QWORD PTR deltaSize$[rbp]
  00116	48 2b c8	 sub	 rcx, rax
  00119	48 8b c1	 mov	 rax, rcx
  0011c	33 d2		 xor	 edx, edx
  0011e	b9 20 00 00 00	 mov	 ecx, 32			; 00000020H
  00123	48 f7 f1	 div	 rcx
  00126	48 63 8d 94 01
	00 00		 movsxd	 rcx, DWORD PTR tv90[rbp]
  0012d	48 03 c1	 add	 rax, rcx
  00130	48 89 85 98 01
	00 00		 mov	 QWORD PTR tv132[rbp], rax
  00137	eb 4a		 jmp	 SHORT $LN16@Barrel_Del
$LN15@Barrel_Del:
  00139	83 7d 04 00	 cmp	 DWORD PTR unitDelta$[rbp], 0
  0013d	7d 2b		 jge	 SHORT $LN13@Barrel_Del
  0013f	48 8b 85 a8 00
	00 00		 mov	 rax, QWORD PTR deltaSize$[rbp]
  00146	48 8b 8d 88 00
	00 00		 mov	 rcx, QWORD PTR remainingCapacity$[rbp]
  0014d	48 2b c8	 sub	 rcx, rax
  00150	48 8b c1	 mov	 rax, rcx
  00153	f7 d8		 neg	 eax
  00155	48 98		 cdqe
  00157	33 d2		 xor	 edx, edx
  00159	b9 20 00 00 00	 mov	 ecx, 32			; 00000020H
  0015e	48 f7 f1	 div	 rcx
  00161	48 89 85 a0 01
	00 00		 mov	 QWORD PTR tv131[rbp], rax
  00168	eb 0b		 jmp	 SHORT $LN14@Barrel_Del
$LN13@Barrel_Del:
  0016a	48 c7 85 a0 01
	00 00 00 00 00
	00		 mov	 QWORD PTR tv131[rbp], 0
$LN14@Barrel_Del:
  00175	48 8b 85 a0 01
	00 00		 mov	 rax, QWORD PTR tv131[rbp]
  0017c	48 89 85 98 01
	00 00		 mov	 QWORD PTR tv132[rbp], rax
$LN16@Barrel_Del:
  00183	8b 85 98 01 00
	00		 mov	 eax, DWORD PTR tv132[rbp]
  00189	89 85 c4 00 00
	00		 mov	 DWORD PTR barrelDelta$[rbp], eax

; 175  : 		unitDelta > 0 ? ((deltaSize - remainingCapacity) / sizeof(Barrel)) + ((deltaSize - remainingCapacity) % sizeof(Barrel) > 0 ? 1 : 0) :
; 176  : 		unitDelta < 0 ? (-(int)(remainingCapacity - deltaSize) / sizeof(Barrel)) : 0;
; 177  : 
; 178  : 	// no action needed
; 179  : 	if (barrelDelta == 0)

  0018f	83 bd c4 00 00
	00 00		 cmp	 DWORD PTR barrelDelta$[rbp], 0
  00196	75 0a		 jne	 SHORT $LN3@Barrel_Del

; 180  : 		return true;

  00198	b8 01 00 00 00	 mov	 eax, 1
  0019d	e9 84 00 00 00	 jmp	 $LN1@Barrel_Del
$LN3@Barrel_Del:

; 181  : 
; 182  : 	// shrink first
; 183  : 	if (barrelDelta < 0)

  001a2	83 bd c4 00 00
	00 00		 cmp	 DWORD PTR barrelDelta$[rbp], 0
  001a9	7d 0f		 jge	 SHORT $LN4@Barrel_Del

; 184  : 		Barrel_Shrink(node, barrelDelta);

  001ab	8b 95 c4 00 00
	00		 mov	 edx, DWORD PTR barrelDelta$[rbp]
  001b1	48 8b 4d 28	 mov	 rcx, QWORD PTR node$[rbp]
  001b5	e8 00 00 00 00	 call	 Barrel_Shrink
$LN4@Barrel_Del:

; 185  : 
; 186  : 	// roll necessary Barrels
; 187  : 	if (node->_nextNode > NONE && !Barrel_Roll(Barrel_GetNode(node->_nextNode), barrelDelta))

  001ba	48 8b 45 28	 mov	 rax, QWORD PTR node$[rbp]
  001be	83 78 1c fe	 cmp	 DWORD PTR [rax+28], -2
  001c2	7e 22		 jle	 SHORT $LN5@Barrel_Del
  001c4	48 8b 45 28	 mov	 rax, QWORD PTR node$[rbp]
  001c8	8b 48 1c	 mov	 ecx, DWORD PTR [rax+28]
  001cb	e8 00 00 00 00	 call	 Barrel_GetNode
  001d0	8b 95 c4 00 00
	00		 mov	 edx, DWORD PTR barrelDelta$[rbp]
  001d6	48 8b c8	 mov	 rcx, rax
  001d9	e8 00 00 00 00	 call	 Barrel_Roll
  001de	85 c0		 test	 eax, eax
  001e0	75 04		 jne	 SHORT $LN5@Barrel_Del

; 188  : 		return false;

  001e2	33 c0		 xor	 eax, eax
  001e4	eb 40		 jmp	 SHORT $LN1@Barrel_Del
$LN5@Barrel_Del:

; 189  : 
; 190  : 	// grow after
; 191  : 	if (barrelDelta > 0) {

  001e6	83 bd c4 00 00
	00 00		 cmp	 DWORD PTR barrelDelta$[rbp], 0
  001ed	7e 32		 jle	 SHORT $LN6@Barrel_Del

; 192  : 		if (node->_nextNode <= NONE && heap_Remaining() < barrelDelta * sizeof(Barrel))

  001ef	48 8b 45 28	 mov	 rax, QWORD PTR node$[rbp]
  001f3	83 78 1c fe	 cmp	 DWORD PTR [rax+28], -2
  001f7	7f 19		 jg	 SHORT $LN7@Barrel_Del
  001f9	e8 00 00 00 00	 call	 heap_Remaining
  001fe	48 63 8d c4 00
	00 00		 movsxd	 rcx, DWORD PTR barrelDelta$[rbp]
  00205	48 6b c9 20	 imul	 rcx, rcx, 32		; 00000020H
  00209	48 3b c1	 cmp	 rax, rcx
  0020c	73 04		 jae	 SHORT $LN7@Barrel_Del

; 193  : 			return false;

  0020e	33 c0		 xor	 eax, eax
  00210	eb 14		 jmp	 SHORT $LN1@Barrel_Del
$LN7@Barrel_Del:

; 194  : 
; 195  : 		Barrel_Grow(node, barrelDelta);

  00212	8b 95 c4 00 00
	00		 mov	 edx, DWORD PTR barrelDelta$[rbp]
  00218	48 8b 4d 28	 mov	 rcx, QWORD PTR node$[rbp]
  0021c	e8 00 00 00 00	 call	 Barrel_Grow
$LN6@Barrel_Del:

; 196  : 	}
; 197  : 
; 198  : 	return true;

  00221	b8 01 00 00 00	 mov	 eax, 1
$LN1@Barrel_Del:

; 199  : }

  00226	48 8d a5 b8 01
	00 00		 lea	 rsp, QWORD PTR [rbp+440]
  0022d	5f		 pop	 rdi
  0022e	5d		 pop	 rbp
  0022f	c3		 ret	 0
Barrel_DeltaSize ENDP
_TEXT	ENDS
; Function compile flags: /Odtp /RTCsu /ZI
; File C:\Repos\BarrelTest\tBarrel.c
;	COMDAT Barrel_Roll
_TEXT	SEGMENT
node$ = 224
request$ = 232
Barrel_Roll PROC					; COMDAT

; 135  : bool Barrel_Roll(BarrelNode* node, int request) {

$LN9:
  00000	89 54 24 10	 mov	 DWORD PTR [rsp+16], edx
  00004	48 89 4c 24 08	 mov	 QWORD PTR [rsp+8], rcx
  00009	55		 push	 rbp
  0000a	57		 push	 rdi
  0000b	48 81 ec e8 00
	00 00		 sub	 rsp, 232		; 000000e8H
  00012	48 8d 6c 24 20	 lea	 rbp, QWORD PTR [rsp+32]
  00017	48 8d 0d 00 00
	00 00		 lea	 rcx, OFFSET FLAT:__59E4AADC_tBarrel@c
  0001e	e8 00 00 00 00	 call	 __CheckForDebuggerJustMyCode

; 136  : 
; 137  : 	if (request == 0)

  00023	83 bd e8 00 00
	00 00		 cmp	 DWORD PTR request$[rbp], 0
  0002a	75 0a		 jne	 SHORT $LN2@Barrel_Rol

; 138  : 		return true;

  0002c	b8 01 00 00 00	 mov	 eax, 1
  00031	e9 ac 00 00 00	 jmp	 $LN1@Barrel_Rol
$LN2@Barrel_Rol:

; 139  : 
; 140  : 	if (!Collection_Request(node))

  00036	48 8b 8d e0 00
	00 00		 mov	 rcx, QWORD PTR node$[rbp]
  0003d	e8 00 00 00 00	 call	 Collection_Request
  00042	85 c0		 test	 eax, eax
  00044	75 07		 jne	 SHORT $LN3@Barrel_Rol

; 141  : 		return false;

  00046	33 c0		 xor	 eax, eax
  00048	e9 95 00 00 00	 jmp	 $LN1@Barrel_Rol
$LN3@Barrel_Rol:

; 142  : 
; 143  : 	if (request < 0) 

  0004d	83 bd e8 00 00
	00 00		 cmp	 DWORD PTR request$[rbp], 0
  00054	7d 12		 jge	 SHORT $LN4@Barrel_Rol

; 144  : 		Barrel_RollBack(node, request);

  00056	8b 95 e8 00 00
	00		 mov	 edx, DWORD PTR request$[rbp]
  0005c	48 8b 8d e0 00
	00 00		 mov	 rcx, QWORD PTR node$[rbp]
  00063	e8 00 00 00 00	 call	 Barrel_RollBack
$LN4@Barrel_Rol:

; 145  : 	
; 146  : 	if (node->_nextNode > -1)

  00068	48 8b 85 e0 00
	00 00		 mov	 rax, QWORD PTR node$[rbp]
  0006f	83 78 1c ff	 cmp	 DWORD PTR [rax+28], -1
  00073	7e 1f		 jle	 SHORT $LN5@Barrel_Rol

; 147  : 		return Barrel_Roll(Barrel_GetNode(node->_nextNode), request);

  00075	48 8b 85 e0 00
	00 00		 mov	 rax, QWORD PTR node$[rbp]
  0007c	8b 48 1c	 mov	 ecx, DWORD PTR [rax+28]
  0007f	e8 00 00 00 00	 call	 Barrel_GetNode
  00084	8b 95 e8 00 00
	00		 mov	 edx, DWORD PTR request$[rbp]
  0008a	48 8b c8	 mov	 rcx, rax
  0008d	e8 00 00 00 00	 call	 Barrel_Roll
  00092	eb 4e		 jmp	 SHORT $LN1@Barrel_Rol
$LN5@Barrel_Rol:

; 148  : 
; 149  : 	if (request > 0 && heap_Remaining() < request * sizeof(Barrel))

  00094	83 bd e8 00 00
	00 00		 cmp	 DWORD PTR request$[rbp], 0
  0009b	7e 19		 jle	 SHORT $LN6@Barrel_Rol
  0009d	e8 00 00 00 00	 call	 heap_Remaining
  000a2	48 63 8d e8 00
	00 00		 movsxd	 rcx, DWORD PTR request$[rbp]
  000a9	48 6b c9 20	 imul	 rcx, rcx, 32		; 00000020H
  000ad	48 3b c1	 cmp	 rax, rcx
  000b0	73 04		 jae	 SHORT $LN6@Barrel_Rol

; 150  : 		return false;

  000b2	33 c0		 xor	 eax, eax
  000b4	eb 2c		 jmp	 SHORT $LN1@Barrel_Rol
$LN6@Barrel_Rol:

; 151  : 
; 152  : 	if (request > 0)

  000b6	83 bd e8 00 00
	00 00		 cmp	 DWORD PTR request$[rbp], 0
  000bd	7e 12		 jle	 SHORT $LN7@Barrel_Rol

; 153  : 		Barrel_RollForward(node, request);

  000bf	8b 95 e8 00 00
	00		 mov	 edx, DWORD PTR request$[rbp]
  000c5	48 8b 8d e0 00
	00 00		 mov	 rcx, QWORD PTR node$[rbp]
  000cc	e8 00 00 00 00	 call	 Barrel_RollForward
$LN7@Barrel_Rol:

; 154  : 
; 155  : 	Collection_Release(node);

  000d1	48 8b 8d e0 00
	00 00		 mov	 rcx, QWORD PTR node$[rbp]
  000d8	e8 00 00 00 00	 call	 Collection_Release

; 156  : 	return true;

  000dd	b8 01 00 00 00	 mov	 eax, 1
$LN1@Barrel_Rol:

; 157  : }

  000e2	48 8d a5 c8 00
	00 00		 lea	 rsp, QWORD PTR [rbp+200]
  000e9	5f		 pop	 rdi
  000ea	5d		 pop	 rbp
  000eb	c3		 ret	 0
Barrel_Roll ENDP
_TEXT	ENDS
; Function compile flags: /Odtp /RTCsu /ZI
; File C:\Repos\BarrelTest\tBarrel.c
;	COMDAT Barrel_Shrink
_TEXT	SEGMENT
newCount$ = 4
newOffset$ = 36
i$1 = 68
tv87 = 276
tv75 = 276
tv73 = 276
tv79 = 280
node$ = 320
request$ = 328
Barrel_Shrink PROC					; COMDAT

; 112  : inline void Barrel_Shrink(BarrelNode* node, int request) {

$LN13:
  00000	89 54 24 10	 mov	 DWORD PTR [rsp+16], edx
  00004	48 89 4c 24 08	 mov	 QWORD PTR [rsp+8], rcx
  00009	55		 push	 rbp
  0000a	57		 push	 rdi
  0000b	48 81 ec 48 01
	00 00		 sub	 rsp, 328		; 00000148H
  00012	48 8d 6c 24 20	 lea	 rbp, QWORD PTR [rsp+32]
  00017	48 8d 0d 00 00
	00 00		 lea	 rcx, OFFSET FLAT:__59E4AADC_tBarrel@c
  0001e	e8 00 00 00 00	 call	 __CheckForDebuggerJustMyCode

; 113  : 	int newCount = (int)(node->_barrelCount) + request;

  00023	48 8b 85 40 01
	00 00		 mov	 rax, QWORD PTR node$[rbp]
  0002a	8b 40 10	 mov	 eax, DWORD PTR [rax+16]
  0002d	03 85 48 01 00
	00		 add	 eax, DWORD PTR request$[rbp]
  00033	89 45 04	 mov	 DWORD PTR newCount$[rbp], eax

; 114  : 	int newOffset = node->_barrelOffset + request;

  00036	48 8b 85 40 01
	00 00		 mov	 rax, QWORD PTR node$[rbp]
  0003d	8b 40 14	 mov	 eax, DWORD PTR [rax+20]
  00040	03 85 48 01 00
	00		 add	 eax, DWORD PTR request$[rbp]
  00046	89 45 24	 mov	 DWORD PTR newOffset$[rbp], eax

; 115  : 
; 116  : 	if (node->_barrelCount != node->_barrelOffset) {

  00049	48 8b 85 40 01
	00 00		 mov	 rax, QWORD PTR node$[rbp]
  00050	48 8b 8d 40 01
	00 00		 mov	 rcx, QWORD PTR node$[rbp]
  00057	8b 49 14	 mov	 ecx, DWORD PTR [rcx+20]
  0005a	39 48 10	 cmp	 DWORD PTR [rax+16], ecx
  0005d	0f 84 cf 00 00
	00		 je	 $LN5@Barrel_Shr

; 117  : 
; 118  : 		request = newOffset < 0 ? request - newOffset : request;

  00063	83 7d 24 00	 cmp	 DWORD PTR newOffset$[rbp], 0
  00067	7d 15		 jge	 SHORT $LN7@Barrel_Shr
  00069	8b 45 24	 mov	 eax, DWORD PTR newOffset$[rbp]
  0006c	8b 8d 48 01 00
	00		 mov	 ecx, DWORD PTR request$[rbp]
  00072	2b c8		 sub	 ecx, eax
  00074	8b c1		 mov	 eax, ecx
  00076	89 85 14 01 00
	00		 mov	 DWORD PTR tv73[rbp], eax
  0007c	eb 0c		 jmp	 SHORT $LN8@Barrel_Shr
$LN7@Barrel_Shr:
  0007e	8b 85 48 01 00
	00		 mov	 eax, DWORD PTR request$[rbp]
  00084	89 85 14 01 00
	00		 mov	 DWORD PTR tv73[rbp], eax
$LN8@Barrel_Shr:
  0008a	8b 85 14 01 00
	00		 mov	 eax, DWORD PTR tv73[rbp]
  00090	89 85 48 01 00
	00		 mov	 DWORD PTR request$[rbp], eax

; 119  : 		newOffset = newOffset < 0 ? 0 : newOffset;

  00096	83 7d 24 00	 cmp	 DWORD PTR newOffset$[rbp], 0
  0009a	7d 0c		 jge	 SHORT $LN9@Barrel_Shr
  0009c	c7 85 14 01 00
	00 00 00 00 00	 mov	 DWORD PTR tv75[rbp], 0
  000a6	eb 09		 jmp	 SHORT $LN10@Barrel_Shr
$LN9@Barrel_Shr:
  000a8	8b 45 24	 mov	 eax, DWORD PTR newOffset$[rbp]
  000ab	89 85 14 01 00
	00		 mov	 DWORD PTR tv75[rbp], eax
$LN10@Barrel_Shr:
  000b1	8b 85 14 01 00
	00		 mov	 eax, DWORD PTR tv75[rbp]
  000b7	89 45 24	 mov	 DWORD PTR newOffset$[rbp], eax

; 120  : 
; 121  : 		for (int i = newOffset; i < newCount; i++)

  000ba	8b 45 24	 mov	 eax, DWORD PTR newOffset$[rbp]
  000bd	89 45 44	 mov	 DWORD PTR i$1[rbp], eax
  000c0	eb 08		 jmp	 SHORT $LN4@Barrel_Shr
$LN2@Barrel_Shr:
  000c2	8b 45 44	 mov	 eax, DWORD PTR i$1[rbp]
  000c5	ff c0		 inc	 eax
  000c7	89 45 44	 mov	 DWORD PTR i$1[rbp], eax
$LN4@Barrel_Shr:
  000ca	8b 45 04	 mov	 eax, DWORD PTR newCount$[rbp]
  000cd	39 45 44	 cmp	 DWORD PTR i$1[rbp], eax
  000d0	7d 3d		 jge	 SHORT $LN3@Barrel_Shr

; 122  : 			barrelTranscribe(

  000d2	8b 85 48 01 00
	00		 mov	 eax, DWORD PTR request$[rbp]
  000d8	8b 4d 44	 mov	 ecx, DWORD PTR i$1[rbp]
  000db	2b c8		 sub	 ecx, eax
  000dd	8b c1		 mov	 eax, ecx
  000df	8b c8		 mov	 ecx, eax
  000e1	e8 00 00 00 00	 call	 Barrel_GetBarrelPtr
  000e6	48 89 85 18 01
	00 00		 mov	 QWORD PTR tv79[rbp], rax
  000ed	8b 4d 44	 mov	 ecx, DWORD PTR i$1[rbp]
  000f0	e8 00 00 00 00	 call	 Barrel_GetBarrelPtr
  000f5	41 b8 01 00 00
	00		 mov	 r8d, 1
  000fb	48 8b 8d 18 01
	00 00		 mov	 rcx, QWORD PTR tv79[rbp]
  00102	48 8b d1	 mov	 rdx, rcx
  00105	48 8b c8	 mov	 rcx, rax
  00108	e8 00 00 00 00	 call	 barrelTranscribe
  0010d	eb b3		 jmp	 SHORT $LN2@Barrel_Shr
$LN3@Barrel_Shr:

; 123  : 				Barrel_GetBarrelPtr(i),					// offset barrel working forwards
; 124  : 				Barrel_GetBarrelPtr(i - request),		// barrel request distance from the offset
; 125  : 				1);
; 126  : 
; 127  : 		newOffset = newOffset < 1 ? newCount : newOffset;

  0010f	83 7d 24 01	 cmp	 DWORD PTR newOffset$[rbp], 1
  00113	7d 0b		 jge	 SHORT $LN11@Barrel_Shr
  00115	8b 45 04	 mov	 eax, DWORD PTR newCount$[rbp]
  00118	89 85 14 01 00
	00		 mov	 DWORD PTR tv87[rbp], eax
  0011e	eb 09		 jmp	 SHORT $LN12@Barrel_Shr
$LN11@Barrel_Shr:
  00120	8b 45 24	 mov	 eax, DWORD PTR newOffset$[rbp]
  00123	89 85 14 01 00
	00		 mov	 DWORD PTR tv87[rbp], eax
$LN12@Barrel_Shr:
  00129	8b 85 14 01 00
	00		 mov	 eax, DWORD PTR tv87[rbp]
  0012f	89 45 24	 mov	 DWORD PTR newOffset$[rbp], eax
$LN5@Barrel_Shr:

; 128  : 	}
; 129  : 
; 130  : 	node->_barrelCount = newCount;

  00132	48 8b 85 40 01
	00 00		 mov	 rax, QWORD PTR node$[rbp]
  00139	8b 4d 04	 mov	 ecx, DWORD PTR newCount$[rbp]
  0013c	89 48 10	 mov	 DWORD PTR [rax+16], ecx

; 131  : 	node->_barrelOffset = newOffset;

  0013f	48 8b 85 40 01
	00 00		 mov	 rax, QWORD PTR node$[rbp]
  00146	8b 4d 24	 mov	 ecx, DWORD PTR newOffset$[rbp]
  00149	89 48 14	 mov	 DWORD PTR [rax+20], ecx

; 132  : }

  0014c	48 8d a5 28 01
	00 00		 lea	 rsp, QWORD PTR [rbp+296]
  00153	5f		 pop	 rdi
  00154	5d		 pop	 rbp
  00155	c3		 ret	 0
Barrel_Shrink ENDP
_TEXT	ENDS
; Function compile flags: /Odtp /RTCsu /ZI
; File C:\Repos\BarrelTest\tBarrel.c
;	COMDAT Barrel_Grow
_TEXT	SEGMENT
newCount$ = 4
newOffset$ = 36
i$1 = 68
tv75 = 280
node$ = 320
request$ = 328
Barrel_Grow PROC					; COMDAT

; 95   : inline void Barrel_Grow(BarrelNode* node, int request) {

$LN7:
  00000	89 54 24 10	 mov	 DWORD PTR [rsp+16], edx
  00004	48 89 4c 24 08	 mov	 QWORD PTR [rsp+8], rcx
  00009	55		 push	 rbp
  0000a	57		 push	 rdi
  0000b	48 81 ec 48 01
	00 00		 sub	 rsp, 328		; 00000148H
  00012	48 8d 6c 24 20	 lea	 rbp, QWORD PTR [rsp+32]
  00017	48 8d 0d 00 00
	00 00		 lea	 rcx, OFFSET FLAT:__59E4AADC_tBarrel@c
  0001e	e8 00 00 00 00	 call	 __CheckForDebuggerJustMyCode

; 96   : 	int newCount = (int)(node->_barrelCount) + request;

  00023	48 8b 85 40 01
	00 00		 mov	 rax, QWORD PTR node$[rbp]
  0002a	8b 40 10	 mov	 eax, DWORD PTR [rax+16]
  0002d	03 85 48 01 00
	00		 add	 eax, DWORD PTR request$[rbp]
  00033	89 45 04	 mov	 DWORD PTR newCount$[rbp], eax

; 97   : 	int newOffset = node->_barrelOffset + request;

  00036	48 8b 85 40 01
	00 00		 mov	 rax, QWORD PTR node$[rbp]
  0003d	8b 40 14	 mov	 eax, DWORD PTR [rax+20]
  00040	03 85 48 01 00
	00		 add	 eax, DWORD PTR request$[rbp]
  00046	89 45 24	 mov	 DWORD PTR newOffset$[rbp], eax

; 98   : 
; 99   : 	if (node->_barrelCount != node->_barrelOffset) {

  00049	48 8b 85 40 01
	00 00		 mov	 rax, QWORD PTR node$[rbp]
  00050	48 8b 8d 40 01
	00 00		 mov	 rcx, QWORD PTR node$[rbp]
  00057	8b 49 14	 mov	 ecx, DWORD PTR [rcx+20]
  0005a	39 48 10	 cmp	 DWORD PTR [rax+16], ecx
  0005d	74 60		 je	 SHORT $LN5@Barrel_Gro

; 100  : 
; 101  : 		for (int i = newCount; i > node->_barrelOffset; i--)

  0005f	8b 45 04	 mov	 eax, DWORD PTR newCount$[rbp]
  00062	89 45 44	 mov	 DWORD PTR i$1[rbp], eax
  00065	eb 08		 jmp	 SHORT $LN4@Barrel_Gro
$LN2@Barrel_Gro:
  00067	8b 45 44	 mov	 eax, DWORD PTR i$1[rbp]
  0006a	ff c8		 dec	 eax
  0006c	89 45 44	 mov	 DWORD PTR i$1[rbp], eax
$LN4@Barrel_Gro:
  0006f	48 8b 85 40 01
	00 00		 mov	 rax, QWORD PTR node$[rbp]
  00076	8b 40 14	 mov	 eax, DWORD PTR [rax+20]
  00079	39 45 44	 cmp	 DWORD PTR i$1[rbp], eax
  0007c	76 41		 jbe	 SHORT $LN3@Barrel_Gro

; 102  : 			barrelTranscribe(

  0007e	8b 85 48 01 00
	00		 mov	 eax, DWORD PTR request$[rbp]
  00084	ff c0		 inc	 eax
  00086	8b 4d 44	 mov	 ecx, DWORD PTR i$1[rbp]
  00089	2b c8		 sub	 ecx, eax
  0008b	8b c1		 mov	 eax, ecx
  0008d	8b c8		 mov	 ecx, eax
  0008f	e8 00 00 00 00	 call	 Barrel_GetBarrelPtr
  00094	48 89 85 18 01
	00 00		 mov	 QWORD PTR tv75[rbp], rax
  0009b	8b 4d 44	 mov	 ecx, DWORD PTR i$1[rbp]
  0009e	ff c9		 dec	 ecx
  000a0	e8 00 00 00 00	 call	 Barrel_GetBarrelPtr
  000a5	41 b8 01 00 00
	00		 mov	 r8d, 1
  000ab	48 8b 8d 18 01
	00 00		 mov	 rcx, QWORD PTR tv75[rbp]
  000b2	48 8b d1	 mov	 rdx, rcx
  000b5	48 8b c8	 mov	 rcx, rax
  000b8	e8 00 00 00 00	 call	 barrelTranscribe
  000bd	eb a8		 jmp	 SHORT $LN2@Barrel_Gro
$LN3@Barrel_Gro:
$LN5@Barrel_Gro:

; 103  : 				Barrel_GetBarrelPtr(i - 1),				// last barrel working backwards
; 104  : 				Barrel_GetBarrelPtr(i - (1 + request)),	// barrel request distance from the last
; 105  : 				1);
; 106  : 	}
; 107  : 
; 108  : 	node->_barrelCount = newCount;

  000bf	48 8b 85 40 01
	00 00		 mov	 rax, QWORD PTR node$[rbp]
  000c6	8b 4d 04	 mov	 ecx, DWORD PTR newCount$[rbp]
  000c9	89 48 10	 mov	 DWORD PTR [rax+16], ecx

; 109  : 	node->_barrelOffset = newOffset;

  000cc	48 8b 85 40 01
	00 00		 mov	 rax, QWORD PTR node$[rbp]
  000d3	8b 4d 24	 mov	 ecx, DWORD PTR newOffset$[rbp]
  000d6	89 48 14	 mov	 DWORD PTR [rax+20], ecx

; 110  : }

  000d9	48 8d a5 28 01
	00 00		 lea	 rsp, QWORD PTR [rbp+296]
  000e0	5f		 pop	 rdi
  000e1	5d		 pop	 rbp
  000e2	c3		 ret	 0
Barrel_Grow ENDP
_TEXT	ENDS
; Function compile flags: /Odtp /RTCsu /ZI
; File C:\Repos\BarrelTest\tBarrel.c
;	COMDAT Barrel_RollForward
_TEXT	SEGMENT
i$1 = 4
tv67 = 216
node$ = 256
request$ = 264
Barrel_RollForward PROC					; COMDAT

; 85   : inline void Barrel_RollForward(BarrelNode* node, int request) {

$LN6:
  00000	89 54 24 10	 mov	 DWORD PTR [rsp+16], edx
  00004	48 89 4c 24 08	 mov	 QWORD PTR [rsp+8], rcx
  00009	55		 push	 rbp
  0000a	57		 push	 rdi
  0000b	48 81 ec 08 01
	00 00		 sub	 rsp, 264		; 00000108H
  00012	48 8d 6c 24 20	 lea	 rbp, QWORD PTR [rsp+32]
  00017	48 8d 0d 00 00
	00 00		 lea	 rcx, OFFSET FLAT:__59E4AADC_tBarrel@c
  0001e	e8 00 00 00 00	 call	 __CheckForDebuggerJustMyCode

; 86   : 	for (int i = 0; i < request; i++)

  00023	c7 45 04 00 00
	00 00		 mov	 DWORD PTR i$1[rbp], 0
  0002a	eb 08		 jmp	 SHORT $LN4@Barrel_Rol
$LN2@Barrel_Rol:
  0002c	8b 45 04	 mov	 eax, DWORD PTR i$1[rbp]
  0002f	ff c0		 inc	 eax
  00031	89 45 04	 mov	 DWORD PTR i$1[rbp], eax
$LN4@Barrel_Rol:
  00034	8b 85 08 01 00
	00		 mov	 eax, DWORD PTR request$[rbp]
  0003a	39 45 04	 cmp	 DWORD PTR i$1[rbp], eax
  0003d	7d 52		 jge	 SHORT $LN3@Barrel_Rol

; 87   : 		barrelTranscribe(

  0003f	48 8b 85 00 01
	00 00		 mov	 rax, QWORD PTR node$[rbp]
  00046	8b 40 18	 mov	 eax, DWORD PTR [rax+24]
  00049	03 45 04	 add	 eax, DWORD PTR i$1[rbp]
  0004c	8b c8		 mov	 ecx, eax
  0004e	e8 00 00 00 00	 call	 Barrel_GetBarrelPtr
  00053	48 89 85 d8 00
	00 00		 mov	 QWORD PTR tv67[rbp], rax
  0005a	48 8b 8d 00 01
	00 00		 mov	 rcx, QWORD PTR node$[rbp]
  00061	8b 49 18	 mov	 ecx, DWORD PTR [rcx+24]
  00064	48 8b 95 00 01
	00 00		 mov	 rdx, QWORD PTR node$[rbp]
  0006b	03 4a 10	 add	 ecx, DWORD PTR [rdx+16]
  0006e	03 4d 04	 add	 ecx, DWORD PTR i$1[rbp]
  00071	e8 00 00 00 00	 call	 Barrel_GetBarrelPtr
  00076	44 8b 85 08 01
	00 00		 mov	 r8d, DWORD PTR request$[rbp]
  0007d	48 8b 8d d8 00
	00 00		 mov	 rcx, QWORD PTR tv67[rbp]
  00084	48 8b d1	 mov	 rdx, rcx
  00087	48 8b c8	 mov	 rcx, rax
  0008a	e8 00 00 00 00	 call	 barrelTranscribe
  0008f	eb 9b		 jmp	 SHORT $LN2@Barrel_Rol
$LN3@Barrel_Rol:

; 88   : 			Barrel_GetBarrelPtr(node->_barrelStart + node->_barrelCount + i),
; 89   : 			Barrel_GetBarrelPtr(node->_barrelStart + i),
; 90   : 			request);
; 91   : 
; 92   : 	Barrel_Offset(node, request);

  00091	8b 95 08 01 00
	00		 mov	 edx, DWORD PTR request$[rbp]
  00097	48 8b 8d 00 01
	00 00		 mov	 rcx, QWORD PTR node$[rbp]
  0009e	e8 00 00 00 00	 call	 Barrel_Offset

; 93   : }

  000a3	48 8d a5 e8 00
	00 00		 lea	 rsp, QWORD PTR [rbp+232]
  000aa	5f		 pop	 rdi
  000ab	5d		 pop	 rbp
  000ac	c3		 ret	 0
Barrel_RollForward ENDP
_TEXT	ENDS
; Function compile flags: /Odtp /RTCsu /ZI
; File C:\Repos\BarrelTest\tBarrel.c
;	COMDAT Barrel_RollBack
_TEXT	SEGMENT
i$1 = 4
tv70 = 212
tv72 = 216
node$ = 256
request$ = 264
Barrel_RollBack PROC					; COMDAT

; 74   : inline void Barrel_RollBack(BarrelNode* node, int request) {

$LN6:
  00000	89 54 24 10	 mov	 DWORD PTR [rsp+16], edx
  00004	48 89 4c 24 08	 mov	 QWORD PTR [rsp+8], rcx
  00009	55		 push	 rbp
  0000a	57		 push	 rdi
  0000b	48 81 ec 08 01
	00 00		 sub	 rsp, 264		; 00000108H
  00012	48 8d 6c 24 20	 lea	 rbp, QWORD PTR [rsp+32]
  00017	48 8d 0d 00 00
	00 00		 lea	 rcx, OFFSET FLAT:__59E4AADC_tBarrel@c
  0001e	e8 00 00 00 00	 call	 __CheckForDebuggerJustMyCode

; 75   : 	node->_barrelStart += request;

  00023	48 8b 85 00 01
	00 00		 mov	 rax, QWORD PTR node$[rbp]
  0002a	8b 40 18	 mov	 eax, DWORD PTR [rax+24]
  0002d	03 85 08 01 00
	00		 add	 eax, DWORD PTR request$[rbp]
  00033	48 8b 8d 00 01
	00 00		 mov	 rcx, QWORD PTR node$[rbp]
  0003a	89 41 18	 mov	 DWORD PTR [rcx+24], eax

; 76   : 	for (int i = 0; i < -request; i++)

  0003d	c7 45 04 00 00
	00 00		 mov	 DWORD PTR i$1[rbp], 0
  00044	eb 08		 jmp	 SHORT $LN4@Barrel_Rol
$LN2@Barrel_Rol:
  00046	8b 45 04	 mov	 eax, DWORD PTR i$1[rbp]
  00049	ff c0		 inc	 eax
  0004b	89 45 04	 mov	 DWORD PTR i$1[rbp], eax
$LN4@Barrel_Rol:
  0004e	8b 85 08 01 00
	00		 mov	 eax, DWORD PTR request$[rbp]
  00054	f7 d8		 neg	 eax
  00056	39 45 04	 cmp	 DWORD PTR i$1[rbp], eax
  00059	7d 60		 jge	 SHORT $LN3@Barrel_Rol

; 77   : 		barrelTranscribe(

  0005b	8b 85 08 01 00
	00		 mov	 eax, DWORD PTR request$[rbp]
  00061	f7 d8		 neg	 eax
  00063	89 85 d4 00 00
	00		 mov	 DWORD PTR tv70[rbp], eax
  00069	48 8b 8d 00 01
	00 00		 mov	 rcx, QWORD PTR node$[rbp]
  00070	8b 49 18	 mov	 ecx, DWORD PTR [rcx+24]
  00073	48 8b 95 00 01
	00 00		 mov	 rdx, QWORD PTR node$[rbp]
  0007a	03 4a 10	 add	 ecx, DWORD PTR [rdx+16]
  0007d	03 4d 04	 add	 ecx, DWORD PTR i$1[rbp]
  00080	e8 00 00 00 00	 call	 Barrel_GetBarrelPtr
  00085	48 89 85 d8 00
	00 00		 mov	 QWORD PTR tv72[rbp], rax
  0008c	48 8b 8d 00 01
	00 00		 mov	 rcx, QWORD PTR node$[rbp]
  00093	8b 49 18	 mov	 ecx, DWORD PTR [rcx+24]
  00096	03 4d 04	 add	 ecx, DWORD PTR i$1[rbp]
  00099	e8 00 00 00 00	 call	 Barrel_GetBarrelPtr
  0009e	8b 8d d4 00 00
	00		 mov	 ecx, DWORD PTR tv70[rbp]
  000a4	44 8b c1	 mov	 r8d, ecx
  000a7	48 8b 8d d8 00
	00 00		 mov	 rcx, QWORD PTR tv72[rbp]
  000ae	48 8b d1	 mov	 rdx, rcx
  000b1	48 8b c8	 mov	 rcx, rax
  000b4	e8 00 00 00 00	 call	 barrelTranscribe
  000b9	eb 8b		 jmp	 SHORT $LN2@Barrel_Rol
$LN3@Barrel_Rol:

; 78   : 			Barrel_GetBarrelPtr(node->_barrelStart + i),
; 79   : 			Barrel_GetBarrelPtr(node->_barrelStart + node->_barrelCount + i),
; 80   : 			-request);
; 81   : 
; 82   : 	Barrel_Offset(node, request);

  000bb	8b 95 08 01 00
	00		 mov	 edx, DWORD PTR request$[rbp]
  000c1	48 8b 8d 00 01
	00 00		 mov	 rcx, QWORD PTR node$[rbp]
  000c8	e8 00 00 00 00	 call	 Barrel_Offset

; 83   : }

  000cd	48 8d a5 e8 00
	00 00		 lea	 rsp, QWORD PTR [rbp+232]
  000d4	5f		 pop	 rdi
  000d5	5d		 pop	 rbp
  000d6	c3		 ret	 0
Barrel_RollBack ENDP
_TEXT	ENDS
; Function compile flags: /Odtp /RTCsu /ZI
; File C:\Repos\BarrelTest\tBarrel.c
;	COMDAT Barrel_Offset
_TEXT	SEGMENT
tv76 = 192
tv75 = 196
node$ = 240
request$ = 248
Barrel_Offset PROC					; COMDAT

; 66   : inline void Barrel_Offset(BarrelNode* node, int request) {

$LN7:
  00000	89 54 24 10	 mov	 DWORD PTR [rsp+16], edx
  00004	48 89 4c 24 08	 mov	 QWORD PTR [rsp+8], rcx
  00009	55		 push	 rbp
  0000a	57		 push	 rdi
  0000b	48 81 ec f8 00
	00 00		 sub	 rsp, 248		; 000000f8H
  00012	48 8d 6c 24 20	 lea	 rbp, QWORD PTR [rsp+32]
  00017	48 8d 0d 00 00
	00 00		 lea	 rcx, OFFSET FLAT:__59E4AADC_tBarrel@c
  0001e	e8 00 00 00 00	 call	 __CheckForDebuggerJustMyCode

; 67   : 	node->_barrelOffset -= request;

  00023	48 8b 85 f0 00
	00 00		 mov	 rax, QWORD PTR node$[rbp]
  0002a	8b 8d f8 00 00
	00		 mov	 ecx, DWORD PTR request$[rbp]
  00030	8b 40 14	 mov	 eax, DWORD PTR [rax+20]
  00033	2b c1		 sub	 eax, ecx
  00035	48 8b 8d f0 00
	00 00		 mov	 rcx, QWORD PTR node$[rbp]
  0003c	89 41 14	 mov	 DWORD PTR [rcx+20], eax

; 68   : 	node->_barrelOffset =

  0003f	48 8b 85 f0 00
	00 00		 mov	 rax, QWORD PTR node$[rbp]
  00046	83 78 14 01	 cmp	 DWORD PTR [rax+20], 1
  0004a	73 12		 jae	 SHORT $LN5@Barrel_Off
  0004c	48 8b 85 f0 00
	00 00		 mov	 rax, QWORD PTR node$[rbp]
  00053	8b 40 10	 mov	 eax, DWORD PTR [rax+16]
  00056	89 85 c0 00 00
	00		 mov	 DWORD PTR tv76[rbp], eax
  0005c	eb 3e		 jmp	 SHORT $LN6@Barrel_Off
$LN5@Barrel_Off:
  0005e	48 8b 85 f0 00
	00 00		 mov	 rax, QWORD PTR node$[rbp]
  00065	48 8b 8d f0 00
	00 00		 mov	 rcx, QWORD PTR node$[rbp]
  0006c	8b 49 10	 mov	 ecx, DWORD PTR [rcx+16]
  0006f	39 48 14	 cmp	 DWORD PTR [rax+20], ecx
  00072	76 0c		 jbe	 SHORT $LN3@Barrel_Off
  00074	c7 85 c4 00 00
	00 01 00 00 00	 mov	 DWORD PTR tv75[rbp], 1
  0007e	eb 10		 jmp	 SHORT $LN4@Barrel_Off
$LN3@Barrel_Off:
  00080	48 8b 85 f0 00
	00 00		 mov	 rax, QWORD PTR node$[rbp]
  00087	8b 40 14	 mov	 eax, DWORD PTR [rax+20]
  0008a	89 85 c4 00 00
	00		 mov	 DWORD PTR tv75[rbp], eax
$LN4@Barrel_Off:
  00090	8b 85 c4 00 00
	00		 mov	 eax, DWORD PTR tv75[rbp]
  00096	89 85 c0 00 00
	00		 mov	 DWORD PTR tv76[rbp], eax
$LN6@Barrel_Off:
  0009c	48 8b 85 f0 00
	00 00		 mov	 rax, QWORD PTR node$[rbp]
  000a3	8b 8d c0 00 00
	00		 mov	 ecx, DWORD PTR tv76[rbp]
  000a9	89 48 14	 mov	 DWORD PTR [rax+20], ecx

; 69   : 		node->_barrelOffset < 1 ? node->_barrelCount :
; 70   : 		node->_barrelOffset > node->_barrelCount ? 1 :
; 71   : 		node->_barrelOffset;
; 72   : }

  000ac	48 8d a5 d8 00
	00 00		 lea	 rsp, QWORD PTR [rbp+216]
  000b3	5f		 pop	 rdi
  000b4	5d		 pop	 rbp
  000b5	c3		 ret	 0
Barrel_Offset ENDP
_TEXT	ENDS
; Function compile flags: /Odtp /RTCsu /ZI
; File C:\Repos\BarrelTest\tBarrel.c
;	COMDAT Barrel_GetBarrelPtr
_TEXT	SEGMENT
index$ = 224
Barrel_GetBarrelPtr PROC				; COMDAT

; 36   : inline void* Barrel_GetBarrelPtr(uint index) {

$LN3:
  00000	89 4c 24 08	 mov	 DWORD PTR [rsp+8], ecx
  00004	55		 push	 rbp
  00005	57		 push	 rdi
  00006	48 81 ec e8 00
	00 00		 sub	 rsp, 232		; 000000e8H
  0000d	48 8d 6c 24 20	 lea	 rbp, QWORD PTR [rsp+32]
  00012	48 8d 0d 00 00
	00 00		 lea	 rcx, OFFSET FLAT:__59E4AADC_tBarrel@c
  00019	e8 00 00 00 00	 call	 __CheckForDebuggerJustMyCode

; 37   : 	return (size_t)(GlobalBarrelService._heap->_heapStart) + (index * sizeof(Barrel));

  0001e	8b 85 e0 00 00
	00		 mov	 eax, DWORD PTR index$[rbp]
  00024	48 6b c0 20	 imul	 rax, rax, 32		; 00000020H
  00028	48 8b 0d 28 00
	00 00		 mov	 rcx, QWORD PTR GlobalBarrelService+40
  0002f	48 03 41 28	 add	 rax, QWORD PTR [rcx+40]

; 38   : }

  00033	48 8d a5 c8 00
	00 00		 lea	 rsp, QWORD PTR [rbp+200]
  0003a	5f		 pop	 rdi
  0003b	5d		 pop	 rbp
  0003c	c3		 ret	 0
Barrel_GetBarrelPtr ENDP
_TEXT	ENDS
; Function compile flags: /Odtp /RTCsu /ZI
; File C:\Repos\BarrelTest\tBarrel.c
;	COMDAT Barrel_GetHead
_TEXT	SEGMENT
nodePtr$ = 224
Barrel_GetHead PROC					; COMDAT

; 30   : inline void* Barrel_GetHead(BarrelNode* nodePtr) {

$LN3:
  00000	48 89 4c 24 08	 mov	 QWORD PTR [rsp+8], rcx
  00005	55		 push	 rbp
  00006	57		 push	 rdi
  00007	48 81 ec e8 00
	00 00		 sub	 rsp, 232		; 000000e8H
  0000e	48 8d 6c 24 20	 lea	 rbp, QWORD PTR [rsp+32]
  00013	48 8d 0d 00 00
	00 00		 lea	 rcx, OFFSET FLAT:__59E4AADC_tBarrel@c
  0001a	e8 00 00 00 00	 call	 __CheckForDebuggerJustMyCode

; 31   : 	return (void*)

  0001f	48 8b 85 e0 00
	00 00		 mov	 rax, QWORD PTR nodePtr$[rbp]
  00026	48 63 40 18	 movsxd	 rax, DWORD PTR [rax+24]
  0002a	48 6b c0 20	 imul	 rax, rax, 32		; 00000020H
  0002e	48 8b 0d 28 00
	00 00		 mov	 rcx, QWORD PTR GlobalBarrelService+40
  00035	48 03 41 28	 add	 rax, QWORD PTR [rcx+40]

; 32   : 		((nodePtr->_barrelStart * sizeof(Barrel)) +
; 33   : 		(ullong)GlobalBarrelService._heap->_heapStart);
; 34   : }

  00039	48 8d a5 c8 00
	00 00		 lea	 rsp, QWORD PTR [rbp+200]
  00040	5f		 pop	 rdi
  00041	5d		 pop	 rbp
  00042	c3		 ret	 0
Barrel_GetHead ENDP
_TEXT	ENDS
; Function compile flags: /Odtp /RTCsu /ZI
; File C:\Repos\BarrelTest\tBarrel.c
;	COMDAT Barrel_GetSize
_TEXT	SEGMENT
nodePtr$ = 224
Barrel_GetSize PROC					; COMDAT

; 26   : inline size_t Barrel_GetSize(BarrelNode* nodePtr) {

$LN3:
  00000	48 89 4c 24 08	 mov	 QWORD PTR [rsp+8], rcx
  00005	55		 push	 rbp
  00006	57		 push	 rdi
  00007	48 81 ec e8 00
	00 00		 sub	 rsp, 232		; 000000e8H
  0000e	48 8d 6c 24 20	 lea	 rbp, QWORD PTR [rsp+32]
  00013	48 8d 0d 00 00
	00 00		 lea	 rcx, OFFSET FLAT:__59E4AADC_tBarrel@c
  0001a	e8 00 00 00 00	 call	 __CheckForDebuggerJustMyCode

; 27   : 	return nodePtr->_barrelCount * sizeof(Barrel);

  0001f	48 8b 85 e0 00
	00 00		 mov	 rax, QWORD PTR nodePtr$[rbp]
  00026	8b 40 10	 mov	 eax, DWORD PTR [rax+16]
  00029	48 6b c0 20	 imul	 rax, rax, 32		; 00000020H

; 28   : }

  0002d	48 8d a5 c8 00
	00 00		 lea	 rsp, QWORD PTR [rbp+200]
  00034	5f		 pop	 rdi
  00035	5d		 pop	 rbp
  00036	c3		 ret	 0
Barrel_GetSize ENDP
_TEXT	ENDS
; Function compile flags: /Odtp /RTCsu /ZI
; File C:\Repos\BarrelTest\tBarrel.c
;	COMDAT Barrel_GetNode
_TEXT	SEGMENT
tv72 = 192
tv71 = 200
index$ = 240
Barrel_GetNode PROC					; COMDAT

; 18   : {

$LN7:
  00000	89 4c 24 08	 mov	 DWORD PTR [rsp+8], ecx
  00004	55		 push	 rbp
  00005	57		 push	 rdi
  00006	48 81 ec f8 00
	00 00		 sub	 rsp, 248		; 000000f8H
  0000d	48 8d 6c 24 20	 lea	 rbp, QWORD PTR [rsp+32]
  00012	48 8d 0d 00 00
	00 00		 lea	 rcx, OFFSET FLAT:__59E4AADC_tBarrel@c
  00019	e8 00 00 00 00	 call	 __CheckForDebuggerJustMyCode

; 19   : 	return

  0001e	83 bd f0 00 00
	00 ff		 cmp	 DWORD PTR index$[rbp], -1
  00025	75 10		 jne	 SHORT $LN5@Barrel_Get
  00027	48 8d 05 30 00
	00 00		 lea	 rax, OFFSET FLAT:GlobalBarrelService+48
  0002e	48 89 85 c0 00
	00 00		 mov	 QWORD PTR tv72[rbp], rax
  00035	eb 4f		 jmp	 SHORT $LN6@Barrel_Get
$LN5@Barrel_Get:
  00037	83 bd f0 00 00
	00 fe		 cmp	 DWORD PTR index$[rbp], -2
  0003e	7e 2d		 jle	 SHORT $LN3@Barrel_Get
  00040	8b 05 38 00 00
	00		 mov	 eax, DWORD PTR GlobalBarrelService+56
  00046	39 85 f0 00 00
	00		 cmp	 DWORD PTR index$[rbp], eax
  0004c	73 1f		 jae	 SHORT $LN3@Barrel_Get
  0004e	48 63 85 f0 00
	00 00		 movsxd	 rax, DWORD PTR index$[rbp]
  00055	48 6b c0 20	 imul	 rax, rax, 32		; 00000020H
  00059	48 8b 0d 28 00
	00 00		 mov	 rcx, QWORD PTR GlobalBarrelService+40
  00060	48 03 41 28	 add	 rax, QWORD PTR [rcx+40]
  00064	48 89 85 c8 00
	00 00		 mov	 QWORD PTR tv71[rbp], rax
  0006b	eb 0b		 jmp	 SHORT $LN4@Barrel_Get
$LN3@Barrel_Get:
  0006d	48 c7 85 c8 00
	00 00 00 00 00
	00		 mov	 QWORD PTR tv71[rbp], 0
$LN4@Barrel_Get:
  00078	48 8b 85 c8 00
	00 00		 mov	 rax, QWORD PTR tv71[rbp]
  0007f	48 89 85 c0 00
	00 00		 mov	 QWORD PTR tv72[rbp], rax
$LN6@Barrel_Get:
  00086	48 8b 85 c0 00
	00 00		 mov	 rax, QWORD PTR tv72[rbp]

; 20   : 		index == OMEGA ? &(GlobalBarrelService.Omegus) :
; 21   : 		index <= NONE || index >= GlobalBarrelService.Omegus._collection._count ? NULL :
; 22   : 		&((BarrelNode*)(GlobalBarrelService._heap->_heapStart))[index];
; 23   : }

  0008d	48 8d a5 d8 00
	00 00		 lea	 rsp, QWORD PTR [rbp+216]
  00094	5f		 pop	 rdi
  00095	5d		 pop	 rbp
  00096	c3		 ret	 0
Barrel_GetNode ENDP
_TEXT	ENDS
; Function compile flags: /Odtp /RTCsu /ZI
; File C:\Repos\BarrelTest\tBarrel.c
;	COMDAT Barrel_Extensions
_TEXT	SEGMENT
$T1 = 208
$T2 = 256
$T3 = 304
tv65 = 324
request$ = 368
Barrel_Extensions PROC					; COMDAT

; 414  : bool Barrel_Extensions(REQUEST request) {

$LN9:
  00000	48 89 4c 24 08	 mov	 QWORD PTR [rsp+8], rcx
  00005	55		 push	 rbp
  00006	56		 push	 rsi
  00007	57		 push	 rdi
  00008	48 81 ec 70 01
	00 00		 sub	 rsp, 368		; 00000170H
  0000f	48 8d 6c 24 20	 lea	 rbp, QWORD PTR [rsp+32]
  00014	48 8d 0d 00 00
	00 00		 lea	 rcx, OFFSET FLAT:__59E4AADC_tBarrel@c
  0001b	e8 00 00 00 00	 call	 __CheckForDebuggerJustMyCode

; 415  : 	switch (request._type)

  00020	48 8b 85 70 01
	00 00		 mov	 rax, QWORD PTR request$[rbp]
  00027	8b 00		 mov	 eax, DWORD PTR [rax]
  00029	89 85 44 01 00
	00		 mov	 DWORD PTR tv65[rbp], eax
  0002f	83 bd 44 01 00
	00 04		 cmp	 DWORD PTR tv65[rbp], 4
  00036	74 14		 je	 SHORT $LN4@Barrel_Ext
  00038	83 bd 44 01 00
	00 08		 cmp	 DWORD PTR tv65[rbp], 8
  0003f	74 57		 je	 SHORT $LN6@Barrel_Ext
  00041	83 bd 44 01 00
	00 0a		 cmp	 DWORD PTR tv65[rbp], 10
  00048	74 28		 je	 SHORT $LN5@Barrel_Ext
  0004a	eb 72		 jmp	 SHORT $LN7@Barrel_Ext
$LN4@Barrel_Ext:

; 416  : 	{
; 417  : 
; 418  : 	case INFO:
; 419  : 		return Barrel_Info(request);

  0004c	48 8d 85 d0 00
	00 00		 lea	 rax, QWORD PTR $T1[rbp]
  00053	48 8b f8	 mov	 rdi, rax
  00056	48 8b b5 70 01
	00 00		 mov	 rsi, QWORD PTR request$[rbp]
  0005d	b9 10 00 00 00	 mov	 ecx, 16
  00062	f3 a4		 rep movsb
  00064	48 8d 8d d0 00
	00 00		 lea	 rcx, QWORD PTR $T1[rbp]
  0006b	e8 00 00 00 00	 call	 Barrel_Info
  00070	eb 4e		 jmp	 SHORT $LN1@Barrel_Ext
$LN5@Barrel_Ext:

; 420  : 
; 421  : 	case TRANSCRIBE:
; 422  : 		return Barrel_Transcribe(request);

  00072	48 8d 85 00 01
	00 00		 lea	 rax, QWORD PTR $T2[rbp]
  00079	48 8b f8	 mov	 rdi, rax
  0007c	48 8b b5 70 01
	00 00		 mov	 rsi, QWORD PTR request$[rbp]
  00083	b9 10 00 00 00	 mov	 ecx, 16
  00088	f3 a4		 rep movsb
  0008a	48 8d 8d 00 01
	00 00		 lea	 rcx, QWORD PTR $T2[rbp]
  00091	e8 00 00 00 00	 call	 Barrel_Transcribe
  00096	eb 28		 jmp	 SHORT $LN1@Barrel_Ext
$LN6@Barrel_Ext:

; 423  : 
; 424  : 	case MANAGE:
; 425  : 		return Barrel_Manage(request);

  00098	48 8d 85 30 01
	00 00		 lea	 rax, QWORD PTR $T3[rbp]
  0009f	48 8b f8	 mov	 rdi, rax
  000a2	48 8b b5 70 01
	00 00		 mov	 rsi, QWORD PTR request$[rbp]
  000a9	b9 10 00 00 00	 mov	 ecx, 16
  000ae	f3 a4		 rep movsb
  000b0	48 8d 8d 30 01
	00 00		 lea	 rcx, QWORD PTR $T3[rbp]
  000b7	e8 00 00 00 00	 call	 Barrel_Manage
  000bc	eb 02		 jmp	 SHORT $LN1@Barrel_Ext
$LN7@Barrel_Ext:

; 426  : 
; 427  : 
; 428  : 	//case COLLECTION_USE:
; 429  : 	//	return barrel_Use(request);
; 430  : 	//
; 431  : 	//case MODIFY_DELTA_CAPACITY:
; 432  : 	//	return barrel_Resize(*request);
; 433  : 	//
; 434  : 	//case TRANSCRIBE_RAW_TO_COLLECTION:
; 435  : 	//case TRANSCRIBE_COLLECTIONS:
; 436  : 	//	return barrel_Write(*request);
; 437  : 	//
; 438  : 	//case TRANSCRIBE_COLLECTION_TO_RAW:
; 439  : 	//	return barrel_Read(*request);
; 440  : 	//
; 441  : 	//case MODIFY_INSERT:
; 442  : 	//	return barrel_Insert(*request);
; 443  : 	//
; 444  : 	//case MODIFY_REMOVE_FIRST_FOUND:
; 445  : 	//	return barrel_Remove(*request);
; 446  : 	//
; 447  : 	//case MODIFY_REMOVE_AT:
; 448  : 	//	return barrel_RemoveAt(*request);
; 449  : 	//
; 450  : 	//case LOCATION:
; 451  : 	//	return barrel_Head(*request);
; 452  : 	//
; 453  : 	//case ITERATE:
; 454  : 	//	return barrel_Iterate(request);
; 455  : 
; 456  : 	default:
; 457  : 		return false;

  000be	33 c0		 xor	 eax, eax
$LN1@Barrel_Ext:

; 458  : 	}
; 459  : }

  000c0	48 8d a5 50 01
	00 00		 lea	 rsp, QWORD PTR [rbp+336]
  000c7	5f		 pop	 rdi
  000c8	5e		 pop	 rsi
  000c9	5d		 pop	 rbp
  000ca	c3		 ret	 0
Barrel_Extensions ENDP
_TEXT	ENDS
; Function compile flags: /Odtp /RTCsu /ZI
; File C:\Repos\BarrelTest\tBarrel.c
;	COMDAT Barrel_maximumAvailableBarrels
_TEXT	SEGMENT
availableBarrels$ = 4
tv69 = 212
requested$ = 256
Barrel_maximumAvailableBarrels PROC			; COMDAT

; 61   : {

$LN5:
  00000	89 4c 24 08	 mov	 DWORD PTR [rsp+8], ecx
  00004	55		 push	 rbp
  00005	57		 push	 rdi
  00006	48 81 ec 08 01
	00 00		 sub	 rsp, 264		; 00000108H
  0000d	48 8d 6c 24 20	 lea	 rbp, QWORD PTR [rsp+32]
  00012	48 8d 0d 00 00
	00 00		 lea	 rcx, OFFSET FLAT:__59E4AADC_tBarrel@c
  00019	e8 00 00 00 00	 call	 __CheckForDebuggerJustMyCode

; 62   : 	uint availableBarrels = heap_Remaining(GlobalBarrelService._heap) / sizeof(Barrel);

  0001e	48 8b 0d 28 00
	00 00		 mov	 rcx, QWORD PTR GlobalBarrelService+40
  00025	e8 00 00 00 00	 call	 heap_Remaining
  0002a	33 d2		 xor	 edx, edx
  0002c	b9 20 00 00 00	 mov	 ecx, 32			; 00000020H
  00031	48 f7 f1	 div	 rcx
  00034	89 45 04	 mov	 DWORD PTR availableBarrels$[rbp], eax

; 63   : 	return availableBarrels < requested ? availableBarrels : requested;

  00037	8b 85 00 01 00
	00		 mov	 eax, DWORD PTR requested$[rbp]
  0003d	39 45 04	 cmp	 DWORD PTR availableBarrels$[rbp], eax
  00040	73 0b		 jae	 SHORT $LN3@Barrel_max
  00042	8b 45 04	 mov	 eax, DWORD PTR availableBarrels$[rbp]
  00045	89 85 d4 00 00
	00		 mov	 DWORD PTR tv69[rbp], eax
  0004b	eb 0c		 jmp	 SHORT $LN4@Barrel_max
$LN3@Barrel_max:
  0004d	8b 85 00 01 00
	00		 mov	 eax, DWORD PTR requested$[rbp]
  00053	89 85 d4 00 00
	00		 mov	 DWORD PTR tv69[rbp], eax
$LN4@Barrel_max:
  00059	8b 85 d4 00 00
	00		 mov	 eax, DWORD PTR tv69[rbp]

; 64   : }

  0005f	48 8d a5 e8 00
	00 00		 lea	 rsp, QWORD PTR [rbp+232]
  00066	5f		 pop	 rdi
  00067	5d		 pop	 rbp
  00068	c3		 ret	 0
Barrel_maximumAvailableBarrels ENDP
_TEXT	ENDS
; Function compile flags: /Odtp /RTCsu /ZI
; File C:\Repos\BarrelTest\tBarrel.c
;	COMDAT Barrel_RemainingSizeCap
_TEXT	SEGMENT
node$ = 224
Barrel_RemainingSizeCap PROC				; COMDAT

; 52   : {

$LN3:
  00000	48 89 4c 24 08	 mov	 QWORD PTR [rsp+8], rcx
  00005	55		 push	 rbp
  00006	57		 push	 rdi
  00007	48 81 ec e8 00
	00 00		 sub	 rsp, 232		; 000000e8H
  0000e	48 8d 6c 24 20	 lea	 rbp, QWORD PTR [rsp+32]
  00013	48 8d 0d 00 00
	00 00		 lea	 rcx, OFFSET FLAT:__59E4AADC_tBarrel@c
  0001a	e8 00 00 00 00	 call	 __CheckForDebuggerJustMyCode

; 53   : 	return (node->_barrelCount * sizeof(Barrel)) - (node->_collection._count * node->_collection._extensions->_type->_size);

  0001f	48 8b 85 e0 00
	00 00		 mov	 rax, QWORD PTR node$[rbp]
  00026	8b 40 10	 mov	 eax, DWORD PTR [rax+16]
  00029	48 6b c0 20	 imul	 rax, rax, 32		; 00000020H
  0002d	48 8b 8d e0 00
	00 00		 mov	 rcx, QWORD PTR node$[rbp]
  00034	8b 49 08	 mov	 ecx, DWORD PTR [rcx+8]
  00037	48 8b 95 e0 00
	00 00		 mov	 rdx, QWORD PTR node$[rbp]
  0003e	48 8b 12	 mov	 rdx, QWORD PTR [rdx]
  00041	48 8b 12	 mov	 rdx, QWORD PTR [rdx]
  00044	48 0f af 4a 08	 imul	 rcx, QWORD PTR [rdx+8]
  00049	48 2b c1	 sub	 rax, rcx

; 54   : }

  0004c	48 8d a5 c8 00
	00 00		 lea	 rsp, QWORD PTR [rbp+200]
  00053	5f		 pop	 rdi
  00054	5d		 pop	 rbp
  00055	c3		 ret	 0
Barrel_RemainingSizeCap ENDP
_TEXT	ENDS
END
