; Listing generated by Microsoft (R) Optimizing Compiler Version 19.39.33523.0 

include listing.inc

INCLUDELIB MSVCRTD
INCLUDELIB OLDNAMES

_DATA	SEGMENT
COMM	ThreadHandle_TypeID:BYTE:018H
COMM	barrelService_ThreadBin:BYTE:0100H
COMM	barrelService_QueBin:BYTE:0200H
_DATA	ENDS
msvcjmc	SEGMENT
__9C67CA7D_tEnums@h DB 01H
__EAEE5CFA_tDefines@h DB 01H
__0ED14FEE_winpackagefamily@h DB 01H
__F92EF742_winapifamily@h DB 01H
__22E515EB_sdkddkver@h DB 01H
__FE09AF47_concurrencysal@h DB 01H
__C073CA79_sal@h DB 01H
__D6AFE870_vadefs@h DB 01H
__D63E96CF_vcruntime@h DB 01H
__514B86D7_excpt@h DB 01H
__9A7D38D9_stdarg@h DB 01H
__29F49F40_specstrings_undef@h DB 01H
__D0F42932_specstrings_strict@h DB 01H
__F00405FD_sdv_driverspecs@h DB 01H
__173E09CA_driverspecs@h DB 01H
__9A452361_specstrings@h DB 01H
__1B0272D9_corecrt@h DB 01H
__74484FB3_corecrt_wctype@h DB 01H
__1EC467ED_ctype@h DB 01H
__98517906_kernelspecs@h DB 01H
__D3497022_basetsd@h DB 01H
__61CC25A1_errno@h DB 01H
__3EADF068_vcruntime_string@h DB 01H
__E4C945B4_corecrt_memcpy_s@h DB 01H
__8EAFF484_corecrt_memory@h DB 01H
__6490AEC5_corecrt_wstring@h DB 01H
__E8295E1E_string@h DB 01H
__7FCB5136_guiddef@h DB 01H
__FF8A9E11_pshpack4@h DB 01H
__D5438902_poppack@h DB 01H
__FB07E2A3_pshpack2@h DB 01H
__F6906775_pshpack8@h DB 01H
__F9415CFA_pshpack1@h DB 01H
__E58C6F1C_apiset@h DB 01H
__A5C52262_ktmtypes@h DB 01H
__FBBA8F9D_winnt@h DB 01H
__A32D3D2C_minwindef@h DB 01H
__7D798299_windef@h DB 01H
__9AE108E9_apisetcconv@h DB 01H
__9CE53D2C_minwinbase@h DB 01H
__5D0AA210_apiquery2@h DB 01H
__4DD4E726_processenv@h DB 01H
__3575CC96_fileapi@h DB 01H
__8EA220E6_fileapifromapp@h DB 01H
__BF9B31FE_debugapi@h DB 01H
__C3AFE134_utilapiset@h DB 01H
__76F69E51_handleapi@h DB 01H
__7E63D784_errhandlingapi@h DB 01H
__FFA7003C_fibersapi@h DB 01H
__8971CECF_namedpipeapi@h DB 01H
__46C9D8A6_profileapi@h DB 01H
__98D4F0A3_heapapi@h DB 01H
__50EF2A88_ioapiset@h DB 01H
__92EA1464_synchapi@h DB 01H
__A53D8AED_interlockedapi@h DB 01H
__B506CAAF_processthreadsapi@h DB 01H
__FF735694_sysinfoapi@h DB 01H
__29589789_memoryapi@h DB 01H
__E9C7A663_enclaveapi@h DB 01H
__D035F9F7_threadpoollegacyapiset@h DB 01H
__C899130C_threadpoolapiset@h DB 01H
__E0441EE7_jobapi@h DB 01H
__CEF86838_jobapi2@h DB 01H
__35AC6B9A_wow64apiset@h DB 01H
__C8AE41A5_libloaderapi@h DB 01H
__CC9E232D_securitybaseapi@h DB 01H
__C9D0C9B8_namespaceapi@h DB 01H
__30FF9CAD_systemtopologyapi@h DB 01H
__4D358795_processtopologyapi@h DB 01H
__40446D10_securityappcontainer@h DB 01H
__3A952EDF_realtimeapiset@h DB 01H
__F4865F4B_winerror@h DB 01H
__53C1BD93_timezoneapi@h DB 01H
__1FFBEDBF_winbase@h DB 01H
__43D3FA34_wingdi@h DB 01H
__D24A7391_tvout@h DB 01H
__7713A6C8_winuser@h DB 01H
__0B345F71_datetimeapi@h DB 01H
__9AC6960C_winnls@h DB 01H
__973A40A8_stringapiset@h DB 01H
__CC46FEE2_wincontypes@h DB 01H
__97D70BE1_consoleapi@h DB 01H
__27EC5E18_consoleapi2@h DB 01H
__262E342F_consoleapi3@h DB 01H
__641DCD70_wincon@h DB 01H
__5A96C7A7_verrsrc@h DB 01H
__B69C6FF2_winver@h DB 01H
__7AEB8C37_reason@h DB 01H
__59F1A8A9_winreg@h DB 01H
__EE0E2B7F_wnnc@h DB 01H
__DCDB7054_winnetwk@h DB 01H
__EDC72EEB_cderr@h DB 01H
__95F9199D_dde@h DB 01H
__66427627_ddeml@h DB 01H
__957C29A0_dlgs@h DB 01H
__12EA15AF_lzexpand@h DB 01H
__62131F15_mmsyscom@h DB 01H
__47E68D49_mciapi@h DB 01H
__5D7DD356_mmiscapi@h DB 01H
__7223D2EF_mmiscapi2@h DB 01H
__A330DBB3_playsoundapi@h DB 01H
__601B366F_mmeapi@h DB 01H
__1134ADD5_timeapi@h DB 01H
__93F2265A_joystickapi@h DB 01H
__DF6EB4E3_mmsystem@h DB 01H
__BD641FCB_nb30@h DB 01H
__DF8704F0_rpcdcep@h DB 01H
__5C6CA7BB_rpcdce@h DB 01H
__853533C4_rpcnsi@h DB 01H
__2D2406C3_rpcnterr@h DB 01H
__64521D71_rpcasync@h DB 01H
__AADCBA08_rpc@h DB 01H
__19E26CFF_shellapi@h DB 01H
__1E9F31D3_winperf@h DB 01H
__832A4112_inaddr@h DB 01H
__32C6F875_winsock@h DB 01H
__7953A3F8_bcrypt@h DB 01H
__E4169492_ncrypt@h DB 01H
__AF3DDDC3_dpapi@h DB 01H
__D1E23BF2_wincrypt@h DB 01H
__82AB4779_winefs@h DB 01H
__1FE431C9_rpcnsip@h DB 01H
__2B741F2D_rpcsal@h DB 01H
__92623256_rpcndr@h DB 01H
__9C18532E_wtypesbase@h DB 01H
__EA2E1D6D_wtypes@h DB 01H
__7DDD9F45_winioctl@h DB 01H
__E550A843_winsmcrd@h DB 01H
__9809C1BA_winscard@h DB 01H
__EA174FA4_prsht@h DB 01H
__0E1BD114_winspool@h DB 01H
__45DED006_corecrt_malloc@h DB 01H
__13F5961F_stddef@h DB 01H
__FD6DBD68_corecrt_search@h DB 01H
__E2E33A61_corecrt_wstdlib@h DB 01H
__10D4A829_limits@h DB 01H
__6E5ACABA_stdlib@h DB 01H
__30B1AFDA_unknwnbase@h DB 01H
__328C1996_objidlbase@h DB 01H
__C4E06B6A_cguid@h DB 01H
__434718C5_combaseapi@h DB 01H
__DE6FDEF1_unknwn@h DB 01H
__CCE0BACC_objidl@h DB 01H
__8C7011E5_oaidl@h DB 01H
__2E0B7863_propidlbase@h DB 01H
__BF4CF2EC_coml2api@h DB 01H
__6D897344_oleidl@h DB 01H
__1129FC2C_servprov@h DB 01H
__757952E4_msxml@h DB 01H
__B1191D53_urlmon@h DB 01H
__404D1A47_propidl@h DB 01H
__A1C63593_objbase@h DB 01H
__C1B0A9CB_oleauto@h DB 01H
__24EAF61F_ole2@h DB 01H
__2B1843DA_commdlg@h DB 01H
__81DDEDE3_stralign@h DB 01H
__2134D1B4_winsvc@h DB 01H
__11C07376_mcx@h DB 01H
__577CE3E7_ime_cmodes@h DB 01H
__1E72C31E_imm@h DB 01H
__63AA7AF5_Windows@h DB 01H
__4EC676C0_tModules@h DB 01H
__AFB9CF29_tPreent@h DB 01H
__366DFDC4_tHelpers@h DB 01H
__D300D227_tTypeInfo@h DB 01H
__03948348_tThreads@h DB 01H
__978ECD68_tServices@h DB 01H
__FEADC134_tHeap@h DB 01H
__296E417C_tChunk@h DB 01H
__7CF1EC1E_tCollection@h DB 01H
__CE367354_tBarrel@h DB 01H
__59E4AADC_tBarrel@c DB 01H
msvcjmc	ENDS
PUBLIC	Barrel_GetNode
PUBLIC	Barrel_GetLastPhysicalNode
PUBLIC	Barrel_GetBarrelPtr
PUBLIC	Barrel_GetUnitPtr
PUBLIC	Barrel_NodeCount
PUBLIC	Barrel_RemainingSizeCap
PUBLIC	Barrel_maximumAvailableBarrels
PUBLIC	Barrel_Roll
PUBLIC	Barrel_DeltaSize
PUBLIC	Barrel_Resize
PUBLIC	Barrel_NextAvailableNodeIx
PUBLIC	Barrel_Manage
PUBLIC	Barrel_Transcribe
PUBLIC	Barrel_Info
PUBLIC	Barrel_Extensions
PUBLIC	Barrel_NodeCtor
PUBLIC	Barrel_Sourced
PUBLIC	Barrel_ServiceInit
PUBLIC	Barrel_ctor
PUBLIC	Barrel_SetLastPhysicalNode
PUBLIC	Barrel_GetSize
PUBLIC	Barrel_GetHead
PUBLIC	Barrel_Offset
PUBLIC	Barrel_RollBack
PUBLIC	Barrel_RollForward
PUBLIC	Barrel_Grow
PUBLIC	Barrel_Shrink
PUBLIC	Barrel_GetChunk
PUBLIC	Barrel_Capacity
PUBLIC	__JustMyCode_Default
PUBLIC	??_C@_0BG@GFFEPJOL@DeltaSize?5Request?3?5?$CF?6@ ; `string'
PUBLIC	??_C@_0BH@ILDHJPOI@Getting?5Fresh?5Node?4?4?4?6@ ; `string'
PUBLIC	??_C@_0BO@CFBAAFAH@Omegus?5Vector?5resize?5failed?$CB?6@ ; `string'
PUBLIC	??_C@_0N@EJBOAMCB@Fresh?5Node?$CB?6@		; `string'
PUBLIC	??_C@_0BA@GEFABINM@Recycled?5Node?$CB?6@	; `string'
PUBLIC	??_C@_0BA@KMNOCOCN@BarrelCount?3?5?$CF?6@	; `string'
PUBLIC	??_C@_0BN@KILFMLHE@HeapService?5failed?5to?5load?$CB?6@ ; `string'
PUBLIC	??_C@_0L@GBDDKNMN@BarrelNode@			; `string'
EXTRN	Preent:PROC
EXTRN	CreateRequest:PROC
EXTRN	rawTranscribe:PROC
EXTRN	barrelTranscribe:PROC
EXTRN	TypeInfo_GetInfo:PROC
EXTRN	TypeInfo_Get:PROC
EXTRN	Heap_Remaining:PROC
EXTRN	Heap_ServiceInit:PROC
EXTRN	Chunk_ctor:PROC
EXTRN	Collection_Create:PROC
EXTRN	Collection_GetExtensions:PROC
EXTRN	Collection_Request:PROC
EXTRN	Collection_Release:PROC
EXTRN	_RTC_CheckStackVars:PROC
EXTRN	_RTC_InitBase:PROC
EXTRN	_RTC_Shutdown:PROC
EXTRN	__CheckForDebuggerJustMyCode:PROC
EXTRN	__GSHandlerCheck:PROC
EXTRN	__security_check_cookie:PROC
EXTRN	__security_cookie:QWORD
_BSS	SEGMENT
GlobalBarrelServiceStarted DD 01H DUP (?)
GlobalBarrelService DB 030H DUP (?)
_BSS	ENDS
;	COMDAT pdata
pdata	SEGMENT
$pdata$Barrel_GetNode DD imagerel $LN7
	DD	imagerel $LN7+151
	DD	imagerel $unwind$Barrel_GetNode
pdata	ENDS
;	COMDAT pdata
pdata	SEGMENT
$pdata$Barrel_GetLastPhysicalNode DD imagerel $LN3
	DD	imagerel $LN3+48
	DD	imagerel $unwind$Barrel_GetLastPhysicalNode
pdata	ENDS
;	COMDAT pdata
pdata	SEGMENT
$pdata$Barrel_GetBarrelPtr DD imagerel $LN3
	DD	imagerel $LN3+61
	DD	imagerel $unwind$Barrel_GetBarrelPtr
pdata	ENDS
;	COMDAT pdata
pdata	SEGMENT
$pdata$Barrel_GetUnitPtr DD imagerel $LN3
	DD	imagerel $LN3+174
	DD	imagerel $unwind$Barrel_GetUnitPtr
pdata	ENDS
;	COMDAT pdata
pdata	SEGMENT
$pdata$Barrel_NodeCount DD imagerel $LN3
	DD	imagerel $LN3+43
	DD	imagerel $unwind$Barrel_NodeCount
pdata	ENDS
;	COMDAT pdata
pdata	SEGMENT
$pdata$Barrel_RemainingSizeCap DD imagerel $LN3
	DD	imagerel $LN3+86
	DD	imagerel $unwind$Barrel_RemainingSizeCap
pdata	ENDS
;	COMDAT pdata
pdata	SEGMENT
$pdata$Barrel_maximumAvailableBarrels DD imagerel $LN5
	DD	imagerel $LN5+105
	DD	imagerel $unwind$Barrel_maximumAvailableBarrels
pdata	ENDS
;	COMDAT pdata
pdata	SEGMENT
$pdata$Barrel_Roll DD imagerel $LN11
	DD	imagerel $LN11+244
	DD	imagerel $unwind$Barrel_Roll
pdata	ENDS
;	COMDAT pdata
pdata	SEGMENT
$pdata$Barrel_DeltaSize DD imagerel $LN17
	DD	imagerel $LN17+759
	DD	imagerel $unwind$Barrel_DeltaSize
pdata	ENDS
;	COMDAT pdata
pdata	SEGMENT
$pdata$Barrel_Resize DD imagerel $LN3
	DD	imagerel $LN3+162
	DD	imagerel $unwind$Barrel_Resize
pdata	ENDS
;	COMDAT pdata
pdata	SEGMENT
$pdata$Barrel_NextAvailableNodeIx DD imagerel $LN6
	DD	imagerel $LN6+604
	DD	imagerel $unwind$Barrel_NextAvailableNodeIx
pdata	ENDS
;	COMDAT pdata
pdata	SEGMENT
$pdata$Barrel_Manage DD imagerel $LN11
	DD	imagerel $LN11+330
	DD	imagerel $unwind$Barrel_Manage
pdata	ENDS
;	COMDAT pdata
pdata	SEGMENT
$pdata$Barrel_Transcribe DD imagerel $LN3
	DD	imagerel $LN3+43
	DD	imagerel $unwind$Barrel_Transcribe
pdata	ENDS
;	COMDAT pdata
pdata	SEGMENT
$pdata$Barrel_Info DD imagerel $LN10
	DD	imagerel $LN10+254
	DD	imagerel $unwind$Barrel_Info
pdata	ENDS
;	COMDAT pdata
pdata	SEGMENT
$pdata$Barrel_Extensions DD imagerel $LN9
	DD	imagerel $LN9+203
	DD	imagerel $unwind$Barrel_Extensions
pdata	ENDS
;	COMDAT pdata
pdata	SEGMENT
$pdata$Barrel_NodeCtor DD imagerel $LN13
	DD	imagerel $LN13+714
	DD	imagerel $unwind$Barrel_NodeCtor
pdata	ENDS
;	COMDAT pdata
pdata	SEGMENT
$pdata$Barrel_Sourced DD imagerel $LN5
	DD	imagerel $LN5+384
	DD	imagerel $unwind$Barrel_Sourced
pdata	ENDS
;	COMDAT pdata
pdata	SEGMENT
$pdata$Barrel_ServiceInit DD imagerel $LN4
	DD	imagerel $LN4+247
	DD	imagerel $unwind$Barrel_ServiceInit
pdata	ENDS
;	COMDAT pdata
pdata	SEGMENT
$pdata$Barrel_ctor DD imagerel $LN5
	DD	imagerel $LN5+142
	DD	imagerel $unwind$Barrel_ctor
pdata	ENDS
;	COMDAT pdata
pdata	SEGMENT
$pdata$Barrel_SetLastPhysicalNode DD imagerel $LN3
	DD	imagerel $LN3+52
	DD	imagerel $unwind$Barrel_SetLastPhysicalNode
pdata	ENDS
;	COMDAT pdata
pdata	SEGMENT
$pdata$Barrel_GetSize DD imagerel $LN3
	DD	imagerel $LN3+55
	DD	imagerel $unwind$Barrel_GetSize
pdata	ENDS
;	COMDAT pdata
pdata	SEGMENT
$pdata$Barrel_GetHead DD imagerel $LN3
	DD	imagerel $LN3+67
	DD	imagerel $unwind$Barrel_GetHead
pdata	ENDS
;	COMDAT pdata
pdata	SEGMENT
$pdata$Barrel_Offset DD imagerel $LN7
	DD	imagerel $LN7+182
	DD	imagerel $unwind$Barrel_Offset
pdata	ENDS
;	COMDAT pdata
pdata	SEGMENT
$pdata$Barrel_RollBack DD imagerel $LN6
	DD	imagerel $LN6+215
	DD	imagerel $unwind$Barrel_RollBack
pdata	ENDS
;	COMDAT pdata
pdata	SEGMENT
$pdata$Barrel_RollForward DD imagerel $LN6
	DD	imagerel $LN6+199
	DD	imagerel $unwind$Barrel_RollForward
pdata	ENDS
;	COMDAT pdata
pdata	SEGMENT
$pdata$Barrel_Grow DD imagerel $LN7
	DD	imagerel $LN7+227
	DD	imagerel $unwind$Barrel_Grow
pdata	ENDS
;	COMDAT pdata
pdata	SEGMENT
$pdata$Barrel_Shrink DD imagerel $LN13
	DD	imagerel $LN13+342
	DD	imagerel $unwind$Barrel_Shrink
pdata	ENDS
;	COMDAT pdata
pdata	SEGMENT
$pdata$Barrel_GetChunk DD imagerel $LN3
	DD	imagerel $LN3+107
	DD	imagerel $unwind$Barrel_GetChunk
pdata	ENDS
;	COMDAT pdata
pdata	SEGMENT
$pdata$Barrel_Capacity DD imagerel $LN3
	DD	imagerel $LN3+90
	DD	imagerel $unwind$Barrel_Capacity
pdata	ENDS
;	COMDAT rtc$TMZ
rtc$TMZ	SEGMENT
_RTC_Shutdown.rtc$TMZ DQ FLAT:_RTC_Shutdown
rtc$TMZ	ENDS
;	COMDAT rtc$IMZ
rtc$IMZ	SEGMENT
_RTC_InitBase.rtc$IMZ DQ FLAT:_RTC_InitBase
rtc$IMZ	ENDS
;	COMDAT ??_C@_0L@GBDDKNMN@BarrelNode@
CONST	SEGMENT
??_C@_0L@GBDDKNMN@BarrelNode@ DB 'BarrelNode', 00H	; `string'
CONST	ENDS
;	COMDAT ??_C@_0BN@KILFMLHE@HeapService?5failed?5to?5load?$CB?6@
CONST	SEGMENT
??_C@_0BN@KILFMLHE@HeapService?5failed?5to?5load?$CB?6@ DB 'HeapService f'
	DB	'ailed to load!', 0aH, 00H			; `string'
CONST	ENDS
;	COMDAT ??_C@_0BA@KMNOCOCN@BarrelCount?3?5?$CF?6@
CONST	SEGMENT
??_C@_0BA@KMNOCOCN@BarrelCount?3?5?$CF?6@ DB 'BarrelCount: %', 0aH, 00H ; `string'
CONST	ENDS
;	COMDAT ??_C@_0BA@GEFABINM@Recycled?5Node?$CB?6@
CONST	SEGMENT
??_C@_0BA@GEFABINM@Recycled?5Node?$CB?6@ DB 'Recycled Node!', 0aH, 00H ; `string'
CONST	ENDS
;	COMDAT ??_C@_0N@EJBOAMCB@Fresh?5Node?$CB?6@
CONST	SEGMENT
??_C@_0N@EJBOAMCB@Fresh?5Node?$CB?6@ DB 'Fresh Node!', 0aH, 00H ; `string'
CONST	ENDS
;	COMDAT ??_C@_0BO@CFBAAFAH@Omegus?5Vector?5resize?5failed?$CB?6@
CONST	SEGMENT
??_C@_0BO@CFBAAFAH@Omegus?5Vector?5resize?5failed?$CB?6@ DB 'Omegus Vecto'
	DB	'r resize failed!', 0aH, 00H			; `string'
CONST	ENDS
;	COMDAT ??_C@_0BH@ILDHJPOI@Getting?5Fresh?5Node?4?4?4?6@
CONST	SEGMENT
??_C@_0BH@ILDHJPOI@Getting?5Fresh?5Node?4?4?4?6@ DB 'Getting Fresh Node..'
	DB	'.', 0aH, 00H				; `string'
CONST	ENDS
;	COMDAT ??_C@_0BG@GFFEPJOL@DeltaSize?5Request?3?5?$CF?6@
CONST	SEGMENT
??_C@_0BG@GFFEPJOL@DeltaSize?5Request?3?5?$CF?6@ DB 'DeltaSize Request: %'
	DB	0aH, 00H					; `string'
CONST	ENDS
;	COMDAT xdata
xdata	SEGMENT
$unwind$Barrel_Capacity DD 025051301H
	DD	010e2313H
	DD	070070025H
	DD	05006H
xdata	ENDS
;	COMDAT xdata
xdata	SEGMENT
$unwind$Barrel_GetChunk DD 025051801H
	DD	01132318H
	DD	0700c001fH
	DD	0500bH
xdata	ENDS
;	COMDAT xdata
xdata	SEGMENT
$unwind$Barrel_Shrink DD 025051701H
	DD	01122317H
	DD	0700b0029H
	DD	0500aH
xdata	ENDS
;	COMDAT xdata
xdata	SEGMENT
$unwind$Barrel_Grow DD 025051701H
	DD	01122317H
	DD	0700b0029H
	DD	0500aH
xdata	ENDS
;	COMDAT xdata
xdata	SEGMENT
$unwind$Barrel_RollForward DD 025051701H
	DD	01122317H
	DD	0700b0021H
	DD	0500aH
xdata	ENDS
;	COMDAT xdata
xdata	SEGMENT
$unwind$Barrel_RollBack DD 025051701H
	DD	01122317H
	DD	0700b0021H
	DD	0500aH
xdata	ENDS
;	COMDAT xdata
xdata	SEGMENT
$unwind$Barrel_Offset DD 025051701H
	DD	01122317H
	DD	0700b001fH
	DD	0500aH
xdata	ENDS
;	COMDAT xdata
xdata	SEGMENT
$unwind$Barrel_GetHead DD 025051301H
	DD	010e2313H
	DD	07007001dH
	DD	05006H
xdata	ENDS
;	COMDAT xdata
xdata	SEGMENT
$unwind$Barrel_GetSize DD 025051301H
	DD	010e2313H
	DD	07007001dH
	DD	05006H
xdata	ENDS
;	COMDAT xdata
xdata	SEGMENT
$unwind$Barrel_SetLastPhysicalNode DD 025051201H
	DD	010d2312H
	DD	07006001dH
	DD	05005H
xdata	ENDS
;	COMDAT xdata
xdata	SEGMENT
$unwind$Barrel_ctor DD 025052201H
	DD	011d2322H
	DD	070160021H
	DD	05015H
xdata	ENDS
;	COMDAT voltbl
voltbl	SEGMENT
_volmd	DB	02aH
	DB	0deH
voltbl	ENDS
;	COMDAT xdata
xdata	SEGMENT
$unwind$Barrel_ServiceInit DD 035053119H
	DD	010a330fH
	DD	070030023H
	DD	05002H
	DD	imagerel __GSHandlerCheck
	DD	0108H
xdata	ENDS
;	COMDAT CONST
CONST	SEGMENT
Barrel_ServiceInit$rtcName$0 DB 024H
	DB	053H
	DB	031H
	DB	038H
	DB	00H
	ORG $+11
Barrel_ServiceInit$rtcVarDesc DD 038H
	DD	00H
	DQ	FLAT:Barrel_ServiceInit$rtcName$0
	ORG $+48
Barrel_ServiceInit$rtcFrameData DD 01H
	DD	00H
	DQ	FLAT:Barrel_ServiceInit$rtcVarDesc
CONST	ENDS
;	COMDAT voltbl
voltbl	SEGMENT
_volmd	DW	046H
	DW	0166H
voltbl	ENDS
;	COMDAT xdata
xdata	SEGMENT
$unwind$Barrel_Sourced DD 035064d19H
	DD	011e3323H
	DD	07017003cH
	DD	050156016H
	DD	imagerel __GSHandlerCheck
	DD	01d8H
xdata	ENDS
;	COMDAT CONST
CONST	SEGMENT
Barrel_Sourced$rtcName$0 DB 024H
	DB	053H
	DB	031H
	DB	035H
	DB	00H
	ORG $+3
Barrel_Sourced$rtcName$1 DB 024H
	DB	053H
	DB	031H
	DB	036H
	DB	00H
	ORG $+3
Barrel_Sourced$rtcName$2 DB 024H
	DB	053H
	DB	031H
	DB	037H
	DB	00H
	ORG $+11
Barrel_Sourced$rtcVarDesc DD 0f8H
	DD	010H
	DQ	FLAT:Barrel_Sourced$rtcName$2
	DD	0d4H
	DD	04H
	DQ	FLAT:Barrel_Sourced$rtcName$1
	DD	098H
	DD	020H
	DQ	FLAT:Barrel_Sourced$rtcName$0
	ORG $+144
Barrel_Sourced$rtcFrameData DD 03H
	DD	00H
	DQ	FLAT:Barrel_Sourced$rtcVarDesc
CONST	ENDS
;	COMDAT voltbl
voltbl	SEGMENT
_volmd	DW	046H
	DW	02b0H
voltbl	ENDS
;	COMDAT xdata
xdata	SEGMENT
$unwind$Barrel_NodeCtor DD 025064d19H
	DD	011e2323H
	DD	070170046H
	DD	050156016H
	DD	imagerel __GSHandlerCheck
	DD	0220H
xdata	ENDS
;	COMDAT CONST
CONST	SEGMENT
Barrel_NodeCtor$rtcName$0 DB 063H
	DB	06fH
	DB	06cH
	DB	06cH
	DB	054H
	DB	06dH
	DB	070H
	DB	00H
	ORG $+8
Barrel_NodeCtor$rtcVarDesc DD 0c8H
	DD	010H
	DQ	FLAT:Barrel_NodeCtor$rtcName$0
	ORG $+48
Barrel_NodeCtor$rtcFrameData DD 01H
	DD	00H
	DQ	FLAT:Barrel_NodeCtor$rtcVarDesc
CONST	ENDS
;	COMDAT xdata
xdata	SEGMENT
$unwind$Barrel_Extensions DD 025061401H
	DD	010f2314H
	DD	07008002eH
	DD	050066007H
xdata	ENDS
;	COMDAT xdata
xdata	SEGMENT
$unwind$Barrel_Info DD 025061401H
	DD	010f2314H
	DD	07008002eH
	DD	050066007H
xdata	ENDS
;	COMDAT xdata
xdata	SEGMENT
$unwind$Barrel_Transcribe DD 025051301H
	DD	010e2313H
	DD	07007001dH
	DD	05006H
xdata	ENDS
;	COMDAT xdata
xdata	SEGMENT
$unwind$Barrel_Manage DD 025061401H
	DD	010f2314H
	DD	070080030H
	DD	050066007H
xdata	ENDS
;	COMDAT voltbl
voltbl	SEGMENT
_volmd	DW	02bH
	DW	0242H
voltbl	ENDS
;	COMDAT xdata
xdata	SEGMENT
$unwind$Barrel_NextAvailableNodeIx DD 025063219H
	DD	010b2310H
	DD	0700400b0H
	DD	050026003H
	DD	imagerel __GSHandlerCheck
	DD	0578H
xdata	ENDS
;	COMDAT CONST
CONST	SEGMENT
Barrel_NextAvailableNodeIx$rtcName$0 DB 024H
	DB	053H
	DB	034H
	DB	00H
Barrel_NextAvailableNodeIx$rtcName$2 DB 024H
	DB	053H
	DB	035H
	DB	00H
Barrel_NextAvailableNodeIx$rtcName$1 DB 064H
	DB	065H
	DB	06cH
	DB	074H
	DB	061H
	DB	053H
	DB	069H
	DB	07aH
	DB	065H
	DB	00H
	ORG $+2
Barrel_NextAvailableNodeIx$rtcName$3 DB 024H
	DB	053H
	DB	036H
	DB	00H
Barrel_NextAvailableNodeIx$rtcName$4 DB 024H
	DB	053H
	DB	037H
	DB	00H
Barrel_NextAvailableNodeIx$rtcName$5 DB 024H
	DB	053H
	DB	038H
	DB	00H
Barrel_NextAvailableNodeIx$rtcName$6 DB 024H
	DB	053H
	DB	039H
	DB	00H
Barrel_NextAvailableNodeIx$rtcName$7 DB 024H
	DB	053H
	DB	031H
	DB	030H
	DB	00H
	ORG $+3
Barrel_NextAvailableNodeIx$rtcName$8 DB 024H
	DB	053H
	DB	031H
	DB	031H
	DB	00H
	ORG $+3
Barrel_NextAvailableNodeIx$rtcName$9 DB 024H
	DB	053H
	DB	031H
	DB	032H
	DB	00H
	ORG $+3
Barrel_NextAvailableNodeIx$rtcName$10 DB 024H
	DB	053H
	DB	031H
	DB	033H
	DB	00H
	ORG $+3
Barrel_NextAvailableNodeIx$rtcName$11 DB 024H
	DB	053H
	DB	031H
	DB	034H
	DB	00H
	ORG $+7
Barrel_NextAvailableNodeIx$rtcVarDesc DD 0388H
	DD	00H
	DQ	FLAT:Barrel_NextAvailableNodeIx$rtcName$11
	DD	0348H
	DD	00H
	DQ	FLAT:Barrel_NextAvailableNodeIx$rtcName$10
	DD	0328H
	DD	00H
	DQ	FLAT:Barrel_NextAvailableNodeIx$rtcName$9
	DD	0200H
	DD	0110H
	DQ	FLAT:Barrel_NextAvailableNodeIx$rtcName$8
	DD	01c8H
	DD	010H
	DQ	FLAT:Barrel_NextAvailableNodeIx$rtcName$7
	DD	0198H
	DD	010H
	DQ	FLAT:Barrel_NextAvailableNodeIx$rtcName$6
	DD	0168H
	DD	010H
	DQ	FLAT:Barrel_NextAvailableNodeIx$rtcName$5
	DD	0138H
	DD	010H
	DQ	FLAT:Barrel_NextAvailableNodeIx$rtcName$4
	DD	0108H
	DD	010H
	DQ	FLAT:Barrel_NextAvailableNodeIx$rtcName$3
	DD	0a0H
	DD	050H
	DQ	FLAT:Barrel_NextAvailableNodeIx$rtcName$2
	DD	068H
	DD	010H
	DQ	FLAT:Barrel_NextAvailableNodeIx$rtcName$1
	DD	048H
	DD	00H
	DQ	FLAT:Barrel_NextAvailableNodeIx$rtcName$0
	ORG $+576
Barrel_NextAvailableNodeIx$rtcFrameData DD 0cH
	DD	00H
	DQ	FLAT:Barrel_NextAvailableNodeIx$rtcVarDesc
CONST	ENDS
;	COMDAT xdata
xdata	SEGMENT
$unwind$Barrel_Resize DD 025061401H
	DD	010f2314H
	DD	070080026H
	DD	050066007H
xdata	ENDS
;	COMDAT voltbl
voltbl	SEGMENT
_volmd	DW	037H
	DW	02ddH
voltbl	ENDS
;	COMDAT xdata
xdata	SEGMENT
$unwind$Barrel_DeltaSize DD 025063e19H
	DD	010f2314H
	DD	07008004cH
	DD	050066007H
	DD	imagerel __GSHandlerCheck
	DD	0258H
xdata	ENDS
;	COMDAT CONST
CONST	SEGMENT
Barrel_DeltaSize$rtcName$0 DB 024H
	DB	053H
	DB	031H
	DB	00H
Barrel_DeltaSize$rtcName$1 DB 024H
	DB	053H
	DB	032H
	DB	00H
Barrel_DeltaSize$rtcName$2 DB 024H
	DB	053H
	DB	033H
	DB	00H
	ORG $+4
Barrel_DeltaSize$rtcVarDesc DD 0a8H
	DD	010H
	DQ	FLAT:Barrel_DeltaSize$rtcName$2
	DD	084H
	DD	04H
	DQ	FLAT:Barrel_DeltaSize$rtcName$1
	DD	048H
	DD	020H
	DQ	FLAT:Barrel_DeltaSize$rtcName$0
	ORG $+144
Barrel_DeltaSize$rtcFrameData DD 03H
	DD	00H
	DQ	FLAT:Barrel_DeltaSize$rtcVarDesc
CONST	ENDS
;	COMDAT xdata
xdata	SEGMENT
$unwind$Barrel_Roll DD 025051701H
	DD	01122317H
	DD	0700b001dH
	DD	0500aH
xdata	ENDS
;	COMDAT xdata
xdata	SEGMENT
$unwind$Barrel_maximumAvailableBarrels DD 025051201H
	DD	010d2312H
	DD	070060021H
	DD	05005H
xdata	ENDS
;	COMDAT xdata
xdata	SEGMENT
$unwind$Barrel_RemainingSizeCap DD 025051301H
	DD	010e2313H
	DD	07007001dH
	DD	05006H
xdata	ENDS
;	COMDAT xdata
xdata	SEGMENT
$unwind$Barrel_NodeCount DD 025050f01H
	DD	010a230fH
	DD	07003001dH
	DD	05002H
xdata	ENDS
;	COMDAT xdata
xdata	SEGMENT
$unwind$Barrel_GetUnitPtr DD 025051701H
	DD	01122317H
	DD	0700b001fH
	DD	0500aH
xdata	ENDS
;	COMDAT xdata
xdata	SEGMENT
$unwind$Barrel_GetBarrelPtr DD 025051201H
	DD	010d2312H
	DD	07006001dH
	DD	05005H
xdata	ENDS
;	COMDAT xdata
xdata	SEGMENT
$unwind$Barrel_GetLastPhysicalNode DD 025050f01H
	DD	010a230fH
	DD	07003001dH
	DD	05002H
xdata	ENDS
;	COMDAT xdata
xdata	SEGMENT
$unwind$Barrel_GetNode DD 025051201H
	DD	010d2312H
	DD	07006001fH
	DD	05005H
xdata	ENDS
; Function compile flags: /Odt
;	COMDAT __JustMyCode_Default
_TEXT	SEGMENT
__JustMyCode_Default PROC				; COMDAT
  00000	c2 00 00	 ret	 0
__JustMyCode_Default ENDP
_TEXT	ENDS
; Function compile flags: /Odtp /RTCsu /ZI
; File C:\Repos\BarrelTest\tBarrel.c
;	COMDAT Barrel_Capacity
_TEXT	SEGMENT
unitSize$ = 8
memSize$ = 40
node$ = 288
Barrel_Capacity PROC					; COMDAT

; 707  : uint Barrel_Capacity(BarrelNode* node) {

$LN3:
  00000	48 89 4c 24 08	 mov	 QWORD PTR [rsp+8], rcx
  00005	55		 push	 rbp
  00006	57		 push	 rdi
  00007	48 81 ec 28 01
	00 00		 sub	 rsp, 296		; 00000128H
  0000e	48 8d 6c 24 20	 lea	 rbp, QWORD PTR [rsp+32]
  00013	48 8d 0d 00 00
	00 00		 lea	 rcx, OFFSET FLAT:__59E4AADC_tBarrel@c
  0001a	e8 00 00 00 00	 call	 __CheckForDebuggerJustMyCode

; 708  : 	size_t unitSize = node->_collection._extensions->_type->_size;

  0001f	48 8b 85 20 01
	00 00		 mov	 rax, QWORD PTR node$[rbp]
  00026	48 8b 00	 mov	 rax, QWORD PTR [rax]
  00029	48 8b 00	 mov	 rax, QWORD PTR [rax]
  0002c	48 8b 40 08	 mov	 rax, QWORD PTR [rax+8]
  00030	48 89 45 08	 mov	 QWORD PTR unitSize$[rbp], rax

; 709  : 	size_t memSize = node->_barrelCount * sizeof(Barrel);

  00034	48 8b 85 20 01
	00 00		 mov	 rax, QWORD PTR node$[rbp]
  0003b	8b 40 10	 mov	 eax, DWORD PTR [rax+16]
  0003e	48 6b c0 20	 imul	 rax, rax, 32		; 00000020H
  00042	48 89 45 28	 mov	 QWORD PTR memSize$[rbp], rax

; 710  : 	return memSize / unitSize;

  00046	33 d2		 xor	 edx, edx
  00048	48 8b 45 28	 mov	 rax, QWORD PTR memSize$[rbp]
  0004c	48 f7 75 08	 div	 QWORD PTR unitSize$[rbp]

; 711  : }

  00050	48 8d a5 08 01
	00 00		 lea	 rsp, QWORD PTR [rbp+264]
  00057	5f		 pop	 rdi
  00058	5d		 pop	 rbp
  00059	c3		 ret	 0
Barrel_Capacity ENDP
_TEXT	ENDS
; Function compile flags: /Odtp /RTCsu /ZI
; File C:\Repos\BarrelTest\tBarrel.c
;	COMDAT Barrel_GetChunk
_TEXT	SEGMENT
tv64 = 192
node$ = 240
loc$ = 248
Barrel_GetChunk PROC					; COMDAT

; 702  : bool Barrel_GetChunk(BarrelNode* node, Chunk* loc) {

$LN3:
  00000	48 89 54 24 10	 mov	 QWORD PTR [rsp+16], rdx
  00005	48 89 4c 24 08	 mov	 QWORD PTR [rsp+8], rcx
  0000a	55		 push	 rbp
  0000b	57		 push	 rdi
  0000c	48 81 ec f8 00
	00 00		 sub	 rsp, 248		; 000000f8H
  00013	48 8d 6c 24 20	 lea	 rbp, QWORD PTR [rsp+32]
  00018	48 8d 0d 00 00
	00 00		 lea	 rcx, OFFSET FLAT:__59E4AADC_tBarrel@c
  0001f	e8 00 00 00 00	 call	 __CheckForDebuggerJustMyCode

; 703  : 	Chunk_ctor(loc, Barrel_GetHead(node), Barrel_GetSize(node));

  00024	48 8b 8d f0 00
	00 00		 mov	 rcx, QWORD PTR node$[rbp]
  0002b	e8 00 00 00 00	 call	 Barrel_GetSize
  00030	48 89 85 c0 00
	00 00		 mov	 QWORD PTR tv64[rbp], rax
  00037	48 8b 8d f0 00
	00 00		 mov	 rcx, QWORD PTR node$[rbp]
  0003e	e8 00 00 00 00	 call	 Barrel_GetHead
  00043	48 8b 8d c0 00
	00 00		 mov	 rcx, QWORD PTR tv64[rbp]
  0004a	4c 8b c1	 mov	 r8, rcx
  0004d	48 8b d0	 mov	 rdx, rax
  00050	48 8b 8d f8 00
	00 00		 mov	 rcx, QWORD PTR loc$[rbp]
  00057	e8 00 00 00 00	 call	 Chunk_ctor

; 704  : 	return true;

  0005c	b8 01 00 00 00	 mov	 eax, 1

; 705  : }

  00061	48 8d a5 d8 00
	00 00		 lea	 rsp, QWORD PTR [rbp+216]
  00068	5f		 pop	 rdi
  00069	5d		 pop	 rbp
  0006a	c3		 ret	 0
Barrel_GetChunk ENDP
_TEXT	ENDS
; Function compile flags: /Odtp /RTCsu /ZI
; File C:\Repos\BarrelTest\tBarrel.c
;	COMDAT Barrel_Shrink
_TEXT	SEGMENT
newCount$ = 4
newOffset$ = 36
i$1 = 68
tv87 = 276
tv75 = 276
tv73 = 276
tv79 = 280
node$ = 320
request$ = 328
Barrel_Shrink PROC					; COMDAT

; 564  : inline void Barrel_Shrink(BarrelNode* node, int request) {

$LN13:
  00000	89 54 24 10	 mov	 DWORD PTR [rsp+16], edx
  00004	48 89 4c 24 08	 mov	 QWORD PTR [rsp+8], rcx
  00009	55		 push	 rbp
  0000a	57		 push	 rdi
  0000b	48 81 ec 48 01
	00 00		 sub	 rsp, 328		; 00000148H
  00012	48 8d 6c 24 20	 lea	 rbp, QWORD PTR [rsp+32]
  00017	48 8d 0d 00 00
	00 00		 lea	 rcx, OFFSET FLAT:__59E4AADC_tBarrel@c
  0001e	e8 00 00 00 00	 call	 __CheckForDebuggerJustMyCode

; 565  : 	int newCount = (int)(node->_barrelCount) + request;

  00023	48 8b 85 40 01
	00 00		 mov	 rax, QWORD PTR node$[rbp]
  0002a	8b 40 10	 mov	 eax, DWORD PTR [rax+16]
  0002d	03 85 48 01 00
	00		 add	 eax, DWORD PTR request$[rbp]
  00033	89 45 04	 mov	 DWORD PTR newCount$[rbp], eax

; 566  : 	int newOffset = node->_barrelOffset + request;

  00036	48 8b 85 40 01
	00 00		 mov	 rax, QWORD PTR node$[rbp]
  0003d	8b 40 14	 mov	 eax, DWORD PTR [rax+20]
  00040	03 85 48 01 00
	00		 add	 eax, DWORD PTR request$[rbp]
  00046	89 45 24	 mov	 DWORD PTR newOffset$[rbp], eax

; 567  : 
; 568  : 	if (node->_barrelCount != node->_barrelOffset) {

  00049	48 8b 85 40 01
	00 00		 mov	 rax, QWORD PTR node$[rbp]
  00050	48 8b 8d 40 01
	00 00		 mov	 rcx, QWORD PTR node$[rbp]
  00057	8b 49 14	 mov	 ecx, DWORD PTR [rcx+20]
  0005a	39 48 10	 cmp	 DWORD PTR [rax+16], ecx
  0005d	0f 84 cf 00 00
	00		 je	 $LN5@Barrel_Shr

; 569  : 
; 570  : 		request = newOffset < 0 ? request - newOffset : request;

  00063	83 7d 24 00	 cmp	 DWORD PTR newOffset$[rbp], 0
  00067	7d 15		 jge	 SHORT $LN7@Barrel_Shr
  00069	8b 45 24	 mov	 eax, DWORD PTR newOffset$[rbp]
  0006c	8b 8d 48 01 00
	00		 mov	 ecx, DWORD PTR request$[rbp]
  00072	2b c8		 sub	 ecx, eax
  00074	8b c1		 mov	 eax, ecx
  00076	89 85 14 01 00
	00		 mov	 DWORD PTR tv73[rbp], eax
  0007c	eb 0c		 jmp	 SHORT $LN8@Barrel_Shr
$LN7@Barrel_Shr:
  0007e	8b 85 48 01 00
	00		 mov	 eax, DWORD PTR request$[rbp]
  00084	89 85 14 01 00
	00		 mov	 DWORD PTR tv73[rbp], eax
$LN8@Barrel_Shr:
  0008a	8b 85 14 01 00
	00		 mov	 eax, DWORD PTR tv73[rbp]
  00090	89 85 48 01 00
	00		 mov	 DWORD PTR request$[rbp], eax

; 571  : 		newOffset = newOffset < 0 ? 0 : newOffset;

  00096	83 7d 24 00	 cmp	 DWORD PTR newOffset$[rbp], 0
  0009a	7d 0c		 jge	 SHORT $LN9@Barrel_Shr
  0009c	c7 85 14 01 00
	00 00 00 00 00	 mov	 DWORD PTR tv75[rbp], 0
  000a6	eb 09		 jmp	 SHORT $LN10@Barrel_Shr
$LN9@Barrel_Shr:
  000a8	8b 45 24	 mov	 eax, DWORD PTR newOffset$[rbp]
  000ab	89 85 14 01 00
	00		 mov	 DWORD PTR tv75[rbp], eax
$LN10@Barrel_Shr:
  000b1	8b 85 14 01 00
	00		 mov	 eax, DWORD PTR tv75[rbp]
  000b7	89 45 24	 mov	 DWORD PTR newOffset$[rbp], eax

; 572  : 
; 573  : 		for (int i = newOffset; i < newCount; i++)

  000ba	8b 45 24	 mov	 eax, DWORD PTR newOffset$[rbp]
  000bd	89 45 44	 mov	 DWORD PTR i$1[rbp], eax
  000c0	eb 08		 jmp	 SHORT $LN4@Barrel_Shr
$LN2@Barrel_Shr:
  000c2	8b 45 44	 mov	 eax, DWORD PTR i$1[rbp]
  000c5	ff c0		 inc	 eax
  000c7	89 45 44	 mov	 DWORD PTR i$1[rbp], eax
$LN4@Barrel_Shr:
  000ca	8b 45 04	 mov	 eax, DWORD PTR newCount$[rbp]
  000cd	39 45 44	 cmp	 DWORD PTR i$1[rbp], eax
  000d0	7d 3d		 jge	 SHORT $LN3@Barrel_Shr

; 574  : 			barrelTranscribe(

  000d2	8b 85 48 01 00
	00		 mov	 eax, DWORD PTR request$[rbp]
  000d8	8b 4d 44	 mov	 ecx, DWORD PTR i$1[rbp]
  000db	2b c8		 sub	 ecx, eax
  000dd	8b c1		 mov	 eax, ecx
  000df	8b c8		 mov	 ecx, eax
  000e1	e8 00 00 00 00	 call	 Barrel_GetBarrelPtr
  000e6	48 89 85 18 01
	00 00		 mov	 QWORD PTR tv79[rbp], rax
  000ed	8b 4d 44	 mov	 ecx, DWORD PTR i$1[rbp]
  000f0	e8 00 00 00 00	 call	 Barrel_GetBarrelPtr
  000f5	41 b8 01 00 00
	00		 mov	 r8d, 1
  000fb	48 8b 8d 18 01
	00 00		 mov	 rcx, QWORD PTR tv79[rbp]
  00102	48 8b d1	 mov	 rdx, rcx
  00105	48 8b c8	 mov	 rcx, rax
  00108	e8 00 00 00 00	 call	 barrelTranscribe
  0010d	eb b3		 jmp	 SHORT $LN2@Barrel_Shr
$LN3@Barrel_Shr:

; 575  : 				Barrel_GetBarrelPtr(i),					// offset barrel working forwards
; 576  : 				Barrel_GetBarrelPtr(i - request),		// barrel request distance from the offset
; 577  : 				1);
; 578  : 
; 579  : 		newOffset = newOffset < 1 ? newCount : newOffset;

  0010f	83 7d 24 01	 cmp	 DWORD PTR newOffset$[rbp], 1
  00113	7d 0b		 jge	 SHORT $LN11@Barrel_Shr
  00115	8b 45 04	 mov	 eax, DWORD PTR newCount$[rbp]
  00118	89 85 14 01 00
	00		 mov	 DWORD PTR tv87[rbp], eax
  0011e	eb 09		 jmp	 SHORT $LN12@Barrel_Shr
$LN11@Barrel_Shr:
  00120	8b 45 24	 mov	 eax, DWORD PTR newOffset$[rbp]
  00123	89 85 14 01 00
	00		 mov	 DWORD PTR tv87[rbp], eax
$LN12@Barrel_Shr:
  00129	8b 85 14 01 00
	00		 mov	 eax, DWORD PTR tv87[rbp]
  0012f	89 45 24	 mov	 DWORD PTR newOffset$[rbp], eax
$LN5@Barrel_Shr:

; 580  : 	}
; 581  : 
; 582  : 	node->_barrelCount = newCount;

  00132	48 8b 85 40 01
	00 00		 mov	 rax, QWORD PTR node$[rbp]
  00139	8b 4d 04	 mov	 ecx, DWORD PTR newCount$[rbp]
  0013c	89 48 10	 mov	 DWORD PTR [rax+16], ecx

; 583  : 	node->_barrelOffset = newOffset;

  0013f	48 8b 85 40 01
	00 00		 mov	 rax, QWORD PTR node$[rbp]
  00146	8b 4d 24	 mov	 ecx, DWORD PTR newOffset$[rbp]
  00149	89 48 14	 mov	 DWORD PTR [rax+20], ecx

; 584  : }

  0014c	48 8d a5 28 01
	00 00		 lea	 rsp, QWORD PTR [rbp+296]
  00153	5f		 pop	 rdi
  00154	5d		 pop	 rbp
  00155	c3		 ret	 0
Barrel_Shrink ENDP
_TEXT	ENDS
; Function compile flags: /Odtp /RTCsu /ZI
; File C:\Repos\BarrelTest\tBarrel.c
;	COMDAT Barrel_Grow
_TEXT	SEGMENT
newCount$ = 4
newOffset$ = 36
i$1 = 68
tv75 = 280
node$ = 320
request$ = 328
Barrel_Grow PROC					; COMDAT

; 548  : inline void Barrel_Grow(BarrelNode* node, int request) {

$LN7:
  00000	89 54 24 10	 mov	 DWORD PTR [rsp+16], edx
  00004	48 89 4c 24 08	 mov	 QWORD PTR [rsp+8], rcx
  00009	55		 push	 rbp
  0000a	57		 push	 rdi
  0000b	48 81 ec 48 01
	00 00		 sub	 rsp, 328		; 00000148H
  00012	48 8d 6c 24 20	 lea	 rbp, QWORD PTR [rsp+32]
  00017	48 8d 0d 00 00
	00 00		 lea	 rcx, OFFSET FLAT:__59E4AADC_tBarrel@c
  0001e	e8 00 00 00 00	 call	 __CheckForDebuggerJustMyCode

; 549  : 	int newCount = (int)(node->_barrelCount) + request;

  00023	48 8b 85 40 01
	00 00		 mov	 rax, QWORD PTR node$[rbp]
  0002a	8b 40 10	 mov	 eax, DWORD PTR [rax+16]
  0002d	03 85 48 01 00
	00		 add	 eax, DWORD PTR request$[rbp]
  00033	89 45 04	 mov	 DWORD PTR newCount$[rbp], eax

; 550  : 	int newOffset = node->_barrelOffset + request;

  00036	48 8b 85 40 01
	00 00		 mov	 rax, QWORD PTR node$[rbp]
  0003d	8b 40 14	 mov	 eax, DWORD PTR [rax+20]
  00040	03 85 48 01 00
	00		 add	 eax, DWORD PTR request$[rbp]
  00046	89 45 24	 mov	 DWORD PTR newOffset$[rbp], eax

; 551  : 
; 552  : 	if (node->_barrelCount != node->_barrelOffset) {

  00049	48 8b 85 40 01
	00 00		 mov	 rax, QWORD PTR node$[rbp]
  00050	48 8b 8d 40 01
	00 00		 mov	 rcx, QWORD PTR node$[rbp]
  00057	8b 49 14	 mov	 ecx, DWORD PTR [rcx+20]
  0005a	39 48 10	 cmp	 DWORD PTR [rax+16], ecx
  0005d	74 60		 je	 SHORT $LN5@Barrel_Gro

; 553  : 
; 554  : 		for (int i = newCount; i > node->_barrelOffset; i--)

  0005f	8b 45 04	 mov	 eax, DWORD PTR newCount$[rbp]
  00062	89 45 44	 mov	 DWORD PTR i$1[rbp], eax
  00065	eb 08		 jmp	 SHORT $LN4@Barrel_Gro
$LN2@Barrel_Gro:
  00067	8b 45 44	 mov	 eax, DWORD PTR i$1[rbp]
  0006a	ff c8		 dec	 eax
  0006c	89 45 44	 mov	 DWORD PTR i$1[rbp], eax
$LN4@Barrel_Gro:
  0006f	48 8b 85 40 01
	00 00		 mov	 rax, QWORD PTR node$[rbp]
  00076	8b 40 14	 mov	 eax, DWORD PTR [rax+20]
  00079	39 45 44	 cmp	 DWORD PTR i$1[rbp], eax
  0007c	76 41		 jbe	 SHORT $LN3@Barrel_Gro

; 555  : 			barrelTranscribe(

  0007e	8b 85 48 01 00
	00		 mov	 eax, DWORD PTR request$[rbp]
  00084	ff c0		 inc	 eax
  00086	8b 4d 44	 mov	 ecx, DWORD PTR i$1[rbp]
  00089	2b c8		 sub	 ecx, eax
  0008b	8b c1		 mov	 eax, ecx
  0008d	8b c8		 mov	 ecx, eax
  0008f	e8 00 00 00 00	 call	 Barrel_GetBarrelPtr
  00094	48 89 85 18 01
	00 00		 mov	 QWORD PTR tv75[rbp], rax
  0009b	8b 4d 44	 mov	 ecx, DWORD PTR i$1[rbp]
  0009e	ff c9		 dec	 ecx
  000a0	e8 00 00 00 00	 call	 Barrel_GetBarrelPtr
  000a5	41 b8 01 00 00
	00		 mov	 r8d, 1
  000ab	48 8b 8d 18 01
	00 00		 mov	 rcx, QWORD PTR tv75[rbp]
  000b2	48 8b d1	 mov	 rdx, rcx
  000b5	48 8b c8	 mov	 rcx, rax
  000b8	e8 00 00 00 00	 call	 barrelTranscribe
  000bd	eb a8		 jmp	 SHORT $LN2@Barrel_Gro
$LN3@Barrel_Gro:
$LN5@Barrel_Gro:

; 556  : 				Barrel_GetBarrelPtr(i - 1),				// last barrel working backwards
; 557  : 				Barrel_GetBarrelPtr(i - (1 + request)),	// barrel request distance from the last
; 558  : 				1);
; 559  : 	}
; 560  : 
; 561  : 	node->_barrelCount = newCount;

  000bf	48 8b 85 40 01
	00 00		 mov	 rax, QWORD PTR node$[rbp]
  000c6	8b 4d 04	 mov	 ecx, DWORD PTR newCount$[rbp]
  000c9	89 48 10	 mov	 DWORD PTR [rax+16], ecx

; 562  : 	node->_barrelOffset = newOffset;

  000cc	48 8b 85 40 01
	00 00		 mov	 rax, QWORD PTR node$[rbp]
  000d3	8b 4d 24	 mov	 ecx, DWORD PTR newOffset$[rbp]
  000d6	89 48 14	 mov	 DWORD PTR [rax+20], ecx

; 563  : }

  000d9	48 8d a5 28 01
	00 00		 lea	 rsp, QWORD PTR [rbp+296]
  000e0	5f		 pop	 rdi
  000e1	5d		 pop	 rbp
  000e2	c3		 ret	 0
Barrel_Grow ENDP
_TEXT	ENDS
; Function compile flags: /Odtp /RTCsu /ZI
; File C:\Repos\BarrelTest\tBarrel.c
;	COMDAT Barrel_RollForward
_TEXT	SEGMENT
i$1 = 4
tv67 = 216
node$ = 256
request$ = 264
Barrel_RollForward PROC					; COMDAT

; 538  : inline void Barrel_RollForward(BarrelNode* node, int request) {

$LN6:
  00000	89 54 24 10	 mov	 DWORD PTR [rsp+16], edx
  00004	48 89 4c 24 08	 mov	 QWORD PTR [rsp+8], rcx
  00009	55		 push	 rbp
  0000a	57		 push	 rdi
  0000b	48 81 ec 08 01
	00 00		 sub	 rsp, 264		; 00000108H
  00012	48 8d 6c 24 20	 lea	 rbp, QWORD PTR [rsp+32]
  00017	48 8d 0d 00 00
	00 00		 lea	 rcx, OFFSET FLAT:__59E4AADC_tBarrel@c
  0001e	e8 00 00 00 00	 call	 __CheckForDebuggerJustMyCode

; 539  : 	for (int i = 0; i < request; i++)

  00023	c7 45 04 00 00
	00 00		 mov	 DWORD PTR i$1[rbp], 0
  0002a	eb 08		 jmp	 SHORT $LN4@Barrel_Rol
$LN2@Barrel_Rol:
  0002c	8b 45 04	 mov	 eax, DWORD PTR i$1[rbp]
  0002f	ff c0		 inc	 eax
  00031	89 45 04	 mov	 DWORD PTR i$1[rbp], eax
$LN4@Barrel_Rol:
  00034	8b 85 08 01 00
	00		 mov	 eax, DWORD PTR request$[rbp]
  0003a	39 45 04	 cmp	 DWORD PTR i$1[rbp], eax
  0003d	7d 52		 jge	 SHORT $LN3@Barrel_Rol

; 540  : 		barrelTranscribe(

  0003f	48 8b 85 00 01
	00 00		 mov	 rax, QWORD PTR node$[rbp]
  00046	8b 40 18	 mov	 eax, DWORD PTR [rax+24]
  00049	03 45 04	 add	 eax, DWORD PTR i$1[rbp]
  0004c	8b c8		 mov	 ecx, eax
  0004e	e8 00 00 00 00	 call	 Barrel_GetBarrelPtr
  00053	48 89 85 d8 00
	00 00		 mov	 QWORD PTR tv67[rbp], rax
  0005a	48 8b 8d 00 01
	00 00		 mov	 rcx, QWORD PTR node$[rbp]
  00061	8b 49 18	 mov	 ecx, DWORD PTR [rcx+24]
  00064	48 8b 95 00 01
	00 00		 mov	 rdx, QWORD PTR node$[rbp]
  0006b	03 4a 10	 add	 ecx, DWORD PTR [rdx+16]
  0006e	03 4d 04	 add	 ecx, DWORD PTR i$1[rbp]
  00071	e8 00 00 00 00	 call	 Barrel_GetBarrelPtr
  00076	44 8b 85 08 01
	00 00		 mov	 r8d, DWORD PTR request$[rbp]
  0007d	48 8b 8d d8 00
	00 00		 mov	 rcx, QWORD PTR tv67[rbp]
  00084	48 8b d1	 mov	 rdx, rcx
  00087	48 8b c8	 mov	 rcx, rax
  0008a	e8 00 00 00 00	 call	 barrelTranscribe
  0008f	eb 9b		 jmp	 SHORT $LN2@Barrel_Rol
$LN3@Barrel_Rol:

; 541  : 			Barrel_GetBarrelPtr(node->_barrelStart + node->_barrelCount + i),
; 542  : 			Barrel_GetBarrelPtr(node->_barrelStart + i),
; 543  : 			request);
; 544  : 	node->_barrelStart += request;

  00091	48 8b 85 00 01
	00 00		 mov	 rax, QWORD PTR node$[rbp]
  00098	8b 40 18	 mov	 eax, DWORD PTR [rax+24]
  0009b	03 85 08 01 00
	00		 add	 eax, DWORD PTR request$[rbp]
  000a1	48 8b 8d 00 01
	00 00		 mov	 rcx, QWORD PTR node$[rbp]
  000a8	89 41 18	 mov	 DWORD PTR [rcx+24], eax

; 545  : 
; 546  : 	Barrel_Offset(node, request);

  000ab	8b 95 08 01 00
	00		 mov	 edx, DWORD PTR request$[rbp]
  000b1	48 8b 8d 00 01
	00 00		 mov	 rcx, QWORD PTR node$[rbp]
  000b8	e8 00 00 00 00	 call	 Barrel_Offset

; 547  : }

  000bd	48 8d a5 e8 00
	00 00		 lea	 rsp, QWORD PTR [rbp+232]
  000c4	5f		 pop	 rdi
  000c5	5d		 pop	 rbp
  000c6	c3		 ret	 0
Barrel_RollForward ENDP
_TEXT	ENDS
; Function compile flags: /Odtp /RTCsu /ZI
; File C:\Repos\BarrelTest\tBarrel.c
;	COMDAT Barrel_RollBack
_TEXT	SEGMENT
i$1 = 4
tv70 = 212
tv72 = 216
node$ = 256
request$ = 264
Barrel_RollBack PROC					; COMDAT

; 528  : inline void Barrel_RollBack(BarrelNode* node, int request) {

$LN6:
  00000	89 54 24 10	 mov	 DWORD PTR [rsp+16], edx
  00004	48 89 4c 24 08	 mov	 QWORD PTR [rsp+8], rcx
  00009	55		 push	 rbp
  0000a	57		 push	 rdi
  0000b	48 81 ec 08 01
	00 00		 sub	 rsp, 264		; 00000108H
  00012	48 8d 6c 24 20	 lea	 rbp, QWORD PTR [rsp+32]
  00017	48 8d 0d 00 00
	00 00		 lea	 rcx, OFFSET FLAT:__59E4AADC_tBarrel@c
  0001e	e8 00 00 00 00	 call	 __CheckForDebuggerJustMyCode

; 529  : 	node->_barrelStart += request;

  00023	48 8b 85 00 01
	00 00		 mov	 rax, QWORD PTR node$[rbp]
  0002a	8b 40 18	 mov	 eax, DWORD PTR [rax+24]
  0002d	03 85 08 01 00
	00		 add	 eax, DWORD PTR request$[rbp]
  00033	48 8b 8d 00 01
	00 00		 mov	 rcx, QWORD PTR node$[rbp]
  0003a	89 41 18	 mov	 DWORD PTR [rcx+24], eax

; 530  : 	for (int i = 0; i < -request; i++)

  0003d	c7 45 04 00 00
	00 00		 mov	 DWORD PTR i$1[rbp], 0
  00044	eb 08		 jmp	 SHORT $LN4@Barrel_Rol
$LN2@Barrel_Rol:
  00046	8b 45 04	 mov	 eax, DWORD PTR i$1[rbp]
  00049	ff c0		 inc	 eax
  0004b	89 45 04	 mov	 DWORD PTR i$1[rbp], eax
$LN4@Barrel_Rol:
  0004e	8b 85 08 01 00
	00		 mov	 eax, DWORD PTR request$[rbp]
  00054	f7 d8		 neg	 eax
  00056	39 45 04	 cmp	 DWORD PTR i$1[rbp], eax
  00059	7d 60		 jge	 SHORT $LN3@Barrel_Rol

; 531  : 		barrelTranscribe(

  0005b	8b 85 08 01 00
	00		 mov	 eax, DWORD PTR request$[rbp]
  00061	f7 d8		 neg	 eax
  00063	89 85 d4 00 00
	00		 mov	 DWORD PTR tv70[rbp], eax
  00069	48 8b 8d 00 01
	00 00		 mov	 rcx, QWORD PTR node$[rbp]
  00070	8b 49 18	 mov	 ecx, DWORD PTR [rcx+24]
  00073	48 8b 95 00 01
	00 00		 mov	 rdx, QWORD PTR node$[rbp]
  0007a	03 4a 10	 add	 ecx, DWORD PTR [rdx+16]
  0007d	03 4d 04	 add	 ecx, DWORD PTR i$1[rbp]
  00080	e8 00 00 00 00	 call	 Barrel_GetBarrelPtr
  00085	48 89 85 d8 00
	00 00		 mov	 QWORD PTR tv72[rbp], rax
  0008c	48 8b 8d 00 01
	00 00		 mov	 rcx, QWORD PTR node$[rbp]
  00093	8b 49 18	 mov	 ecx, DWORD PTR [rcx+24]
  00096	03 4d 04	 add	 ecx, DWORD PTR i$1[rbp]
  00099	e8 00 00 00 00	 call	 Barrel_GetBarrelPtr
  0009e	8b 8d d4 00 00
	00		 mov	 ecx, DWORD PTR tv70[rbp]
  000a4	44 8b c1	 mov	 r8d, ecx
  000a7	48 8b 8d d8 00
	00 00		 mov	 rcx, QWORD PTR tv72[rbp]
  000ae	48 8b d1	 mov	 rdx, rcx
  000b1	48 8b c8	 mov	 rcx, rax
  000b4	e8 00 00 00 00	 call	 barrelTranscribe
  000b9	eb 8b		 jmp	 SHORT $LN2@Barrel_Rol
$LN3@Barrel_Rol:

; 532  : 			Barrel_GetBarrelPtr(node->_barrelStart + i),
; 533  : 			Barrel_GetBarrelPtr(node->_barrelStart + node->_barrelCount + i),
; 534  : 			-request);
; 535  : 
; 536  : 	Barrel_Offset(node, request);

  000bb	8b 95 08 01 00
	00		 mov	 edx, DWORD PTR request$[rbp]
  000c1	48 8b 8d 00 01
	00 00		 mov	 rcx, QWORD PTR node$[rbp]
  000c8	e8 00 00 00 00	 call	 Barrel_Offset

; 537  : }

  000cd	48 8d a5 e8 00
	00 00		 lea	 rsp, QWORD PTR [rbp+232]
  000d4	5f		 pop	 rdi
  000d5	5d		 pop	 rbp
  000d6	c3		 ret	 0
Barrel_RollBack ENDP
_TEXT	ENDS
; Function compile flags: /Odtp /RTCsu /ZI
; File C:\Repos\BarrelTest\tBarrel.c
;	COMDAT Barrel_Offset
_TEXT	SEGMENT
tv76 = 192
tv75 = 196
node$ = 240
request$ = 248
Barrel_Offset PROC					; COMDAT

; 521  : inline void Barrel_Offset(BarrelNode* node, int request) {

$LN7:
  00000	89 54 24 10	 mov	 DWORD PTR [rsp+16], edx
  00004	48 89 4c 24 08	 mov	 QWORD PTR [rsp+8], rcx
  00009	55		 push	 rbp
  0000a	57		 push	 rdi
  0000b	48 81 ec f8 00
	00 00		 sub	 rsp, 248		; 000000f8H
  00012	48 8d 6c 24 20	 lea	 rbp, QWORD PTR [rsp+32]
  00017	48 8d 0d 00 00
	00 00		 lea	 rcx, OFFSET FLAT:__59E4AADC_tBarrel@c
  0001e	e8 00 00 00 00	 call	 __CheckForDebuggerJustMyCode

; 522  : 	node->_barrelOffset -= request;

  00023	48 8b 85 f0 00
	00 00		 mov	 rax, QWORD PTR node$[rbp]
  0002a	8b 8d f8 00 00
	00		 mov	 ecx, DWORD PTR request$[rbp]
  00030	8b 40 14	 mov	 eax, DWORD PTR [rax+20]
  00033	2b c1		 sub	 eax, ecx
  00035	48 8b 8d f0 00
	00 00		 mov	 rcx, QWORD PTR node$[rbp]
  0003c	89 41 14	 mov	 DWORD PTR [rcx+20], eax

; 523  : 	node->_barrelOffset =

  0003f	48 8b 85 f0 00
	00 00		 mov	 rax, QWORD PTR node$[rbp]
  00046	83 78 14 01	 cmp	 DWORD PTR [rax+20], 1
  0004a	73 12		 jae	 SHORT $LN5@Barrel_Off
  0004c	48 8b 85 f0 00
	00 00		 mov	 rax, QWORD PTR node$[rbp]
  00053	8b 40 10	 mov	 eax, DWORD PTR [rax+16]
  00056	89 85 c0 00 00
	00		 mov	 DWORD PTR tv76[rbp], eax
  0005c	eb 3e		 jmp	 SHORT $LN6@Barrel_Off
$LN5@Barrel_Off:
  0005e	48 8b 85 f0 00
	00 00		 mov	 rax, QWORD PTR node$[rbp]
  00065	48 8b 8d f0 00
	00 00		 mov	 rcx, QWORD PTR node$[rbp]
  0006c	8b 49 10	 mov	 ecx, DWORD PTR [rcx+16]
  0006f	39 48 14	 cmp	 DWORD PTR [rax+20], ecx
  00072	76 0c		 jbe	 SHORT $LN3@Barrel_Off
  00074	c7 85 c4 00 00
	00 01 00 00 00	 mov	 DWORD PTR tv75[rbp], 1
  0007e	eb 10		 jmp	 SHORT $LN4@Barrel_Off
$LN3@Barrel_Off:
  00080	48 8b 85 f0 00
	00 00		 mov	 rax, QWORD PTR node$[rbp]
  00087	8b 40 14	 mov	 eax, DWORD PTR [rax+20]
  0008a	89 85 c4 00 00
	00		 mov	 DWORD PTR tv75[rbp], eax
$LN4@Barrel_Off:
  00090	8b 85 c4 00 00
	00		 mov	 eax, DWORD PTR tv75[rbp]
  00096	89 85 c0 00 00
	00		 mov	 DWORD PTR tv76[rbp], eax
$LN6@Barrel_Off:
  0009c	48 8b 85 f0 00
	00 00		 mov	 rax, QWORD PTR node$[rbp]
  000a3	8b 8d c0 00 00
	00		 mov	 ecx, DWORD PTR tv76[rbp]
  000a9	89 48 14	 mov	 DWORD PTR [rax+20], ecx

; 524  : 		node->_barrelOffset < 1 ? node->_barrelCount :
; 525  : 		node->_barrelOffset > node->_barrelCount ? 1 :
; 526  : 		node->_barrelOffset;
; 527  : }

  000ac	48 8d a5 d8 00
	00 00		 lea	 rsp, QWORD PTR [rbp+216]
  000b3	5f		 pop	 rdi
  000b4	5d		 pop	 rbp
  000b5	c3		 ret	 0
Barrel_Offset ENDP
_TEXT	ENDS
; Function compile flags: /Odtp /RTCsu /ZI
; File C:\Repos\BarrelTest\tBarrel.c
;	COMDAT Barrel_GetHead
_TEXT	SEGMENT
nodePtr$ = 224
Barrel_GetHead PROC					; COMDAT

; 473  : inline void* Barrel_GetHead(BarrelNode* nodePtr) {

$LN3:
  00000	48 89 4c 24 08	 mov	 QWORD PTR [rsp+8], rcx
  00005	55		 push	 rbp
  00006	57		 push	 rdi
  00007	48 81 ec e8 00
	00 00		 sub	 rsp, 232		; 000000e8H
  0000e	48 8d 6c 24 20	 lea	 rbp, QWORD PTR [rsp+32]
  00013	48 8d 0d 00 00
	00 00		 lea	 rcx, OFFSET FLAT:__59E4AADC_tBarrel@c
  0001a	e8 00 00 00 00	 call	 __CheckForDebuggerJustMyCode

; 474  : 	return (void*)

  0001f	48 8b 85 e0 00
	00 00		 mov	 rax, QWORD PTR nodePtr$[rbp]
  00026	48 63 40 18	 movsxd	 rax, DWORD PTR [rax+24]
  0002a	48 6b c0 20	 imul	 rax, rax, 32		; 00000020H
  0002e	48 8b 0d 00 00
	00 00		 mov	 rcx, QWORD PTR GlobalBarrelService
  00035	48 03 41 28	 add	 rax, QWORD PTR [rcx+40]

; 475  : 		((nodePtr->_barrelStart * sizeof(Barrel)) +
; 476  : 		(ullong)GlobalBarrelService._heap->_heapStart);
; 477  : }

  00039	48 8d a5 c8 00
	00 00		 lea	 rsp, QWORD PTR [rbp+200]
  00040	5f		 pop	 rdi
  00041	5d		 pop	 rbp
  00042	c3		 ret	 0
Barrel_GetHead ENDP
_TEXT	ENDS
; Function compile flags: /Odtp /RTCsu /ZI
; File C:\Repos\BarrelTest\tBarrel.c
;	COMDAT Barrel_GetSize
_TEXT	SEGMENT
nodePtr$ = 224
Barrel_GetSize PROC					; COMDAT

; 469  : inline size_t Barrel_GetSize(BarrelNode* nodePtr) {

$LN3:
  00000	48 89 4c 24 08	 mov	 QWORD PTR [rsp+8], rcx
  00005	55		 push	 rbp
  00006	57		 push	 rdi
  00007	48 81 ec e8 00
	00 00		 sub	 rsp, 232		; 000000e8H
  0000e	48 8d 6c 24 20	 lea	 rbp, QWORD PTR [rsp+32]
  00013	48 8d 0d 00 00
	00 00		 lea	 rcx, OFFSET FLAT:__59E4AADC_tBarrel@c
  0001a	e8 00 00 00 00	 call	 __CheckForDebuggerJustMyCode

; 470  : 	return nodePtr->_barrelCount * sizeof(Barrel);

  0001f	48 8b 85 e0 00
	00 00		 mov	 rax, QWORD PTR nodePtr$[rbp]
  00026	8b 40 10	 mov	 eax, DWORD PTR [rax+16]
  00029	48 6b c0 20	 imul	 rax, rax, 32		; 00000020H

; 471  : }

  0002d	48 8d a5 c8 00
	00 00		 lea	 rsp, QWORD PTR [rbp+200]
  00034	5f		 pop	 rdi
  00035	5d		 pop	 rbp
  00036	c3		 ret	 0
Barrel_GetSize ENDP
_TEXT	ENDS
; Function compile flags: /Odtp /RTCsu /ZI
; File C:\Repos\BarrelTest\tBarrel.c
;	COMDAT Barrel_SetLastPhysicalNode
_TEXT	SEGMENT
set$ = 224
Barrel_SetLastPhysicalNode PROC				; COMDAT

; 467  : inline void Barrel_SetLastPhysicalNode(int set) { GlobalBarrelService._lastPhysicalNode = set; }

$LN3:
  00000	89 4c 24 08	 mov	 DWORD PTR [rsp+8], ecx
  00004	55		 push	 rbp
  00005	57		 push	 rdi
  00006	48 81 ec e8 00
	00 00		 sub	 rsp, 232		; 000000e8H
  0000d	48 8d 6c 24 20	 lea	 rbp, QWORD PTR [rsp+32]
  00012	48 8d 0d 00 00
	00 00		 lea	 rcx, OFFSET FLAT:__59E4AADC_tBarrel@c
  00019	e8 00 00 00 00	 call	 __CheckForDebuggerJustMyCode
  0001e	8b 85 e0 00 00
	00		 mov	 eax, DWORD PTR set$[rbp]
  00024	89 05 2c 00 00
	00		 mov	 DWORD PTR GlobalBarrelService+44, eax
  0002a	48 8d a5 c8 00
	00 00		 lea	 rsp, QWORD PTR [rbp+200]
  00031	5f		 pop	 rdi
  00032	5d		 pop	 rbp
  00033	c3		 ret	 0
Barrel_SetLastPhysicalNode ENDP
_TEXT	ENDS
; Function compile flags: /Odtp /RTCsu /ZI
; File C:\Repos\BarrelTest\tBarrel.c
;	COMDAT Barrel_ctor
_TEXT	SEGMENT
info$ = 8
typeName$ = 256
unitSize$ = 264
srcHead$ = 272
memFlags$ = 280
initCapacity$ = 288
Barrel_ctor PROC					; COMDAT

; 879  : COLLECTION Barrel_ctor(const char* typeName, size_t unitSize, void* srcHead, int memFlags, uint initCapacity) {

$LN5:
  00000	44 89 4c 24 20	 mov	 DWORD PTR [rsp+32], r9d
  00005	4c 89 44 24 18	 mov	 QWORD PTR [rsp+24], r8
  0000a	48 89 54 24 10	 mov	 QWORD PTR [rsp+16], rdx
  0000f	48 89 4c 24 08	 mov	 QWORD PTR [rsp+8], rcx
  00014	55		 push	 rbp
  00015	57		 push	 rdi
  00016	48 81 ec 08 01
	00 00		 sub	 rsp, 264		; 00000108H
  0001d	48 8d 6c 24 20	 lea	 rbp, QWORD PTR [rsp+32]
  00022	48 8d 0d 00 00
	00 00		 lea	 rcx, OFFSET FLAT:__59E4AADC_tBarrel@c
  00029	e8 00 00 00 00	 call	 __CheckForDebuggerJustMyCode

; 880  : 
; 881  : 	if (!GlobalBarrelServiceStarted && !Barrel_ServiceInit())

  0002e	83 3d 00 00 00
	00 00		 cmp	 DWORD PTR GlobalBarrelServiceStarted, 0
  00035	75 0d		 jne	 SHORT $LN2@Barrel_cto
  00037	e8 00 00 00 00	 call	 Barrel_ServiceInit
  0003c	85 c0		 test	 eax, eax
  0003e	75 04		 jne	 SHORT $LN2@Barrel_cto

; 882  : 		return NULL;

  00040	33 c0		 xor	 eax, eax
  00042	eb 40		 jmp	 SHORT $LN1@Barrel_cto
$LN2@Barrel_cto:

; 883  : 
; 884  : 	TypeInfo* info = TypeInfo_Get(typeName, unitSize);

  00044	48 8b 95 08 01
	00 00		 mov	 rdx, QWORD PTR unitSize$[rbp]
  0004b	48 8b 8d 00 01
	00 00		 mov	 rcx, QWORD PTR typeName$[rbp]
  00052	e8 00 00 00 00	 call	 TypeInfo_Get
  00057	48 89 45 08	 mov	 QWORD PTR info$[rbp], rax

; 885  : 	if (!info)

  0005b	48 83 7d 08 00	 cmp	 QWORD PTR info$[rbp], 0
  00060	75 04		 jne	 SHORT $LN3@Barrel_cto

; 886  : 		return NULL;

  00062	33 c0		 xor	 eax, eax
  00064	eb 1e		 jmp	 SHORT $LN1@Barrel_cto
$LN3@Barrel_cto:

; 887  : 
; 888  : 	return Barrel_Sourced(info, srcHead, memFlags, initCapacity);

  00066	44 8b 8d 20 01
	00 00		 mov	 r9d, DWORD PTR initCapacity$[rbp]
  0006d	44 8b 85 18 01
	00 00		 mov	 r8d, DWORD PTR memFlags$[rbp]
  00074	48 8b 95 10 01
	00 00		 mov	 rdx, QWORD PTR srcHead$[rbp]
  0007b	48 8b 4d 08	 mov	 rcx, QWORD PTR info$[rbp]
  0007f	e8 00 00 00 00	 call	 Barrel_Sourced
$LN1@Barrel_cto:

; 889  : }

  00084	48 8d a5 e8 00
	00 00		 lea	 rsp, QWORD PTR [rbp+232]
  0008b	5f		 pop	 rdi
  0008c	5d		 pop	 rbp
  0008d	c3		 ret	 0
Barrel_ctor ENDP
_TEXT	ENDS
; Function compile flags: /Odtp /RTCsu /ZI
; File C:\Repos\BarrelTest\tBarrel.c
;	COMDAT Barrel_ServiceInit
_TEXT	SEGMENT
$S18$4 = 8
__$ArrayPad$ = 216
Barrel_ServiceInit PROC					; COMDAT

; 858  : {

$LN4:
  00000	40 55		 push	 rbp
  00002	57		 push	 rdi
  00003	48 81 ec 18 01
	00 00		 sub	 rsp, 280		; 00000118H
  0000a	48 8d 6c 24 30	 lea	 rbp, QWORD PTR [rsp+48]
  0000f	48 8d 7c 24 30	 lea	 rdi, QWORD PTR [rsp+48]
  00014	b9 0a 00 00 00	 mov	 ecx, 10
  00019	b8 cc cc cc cc	 mov	 eax, -858993460		; ccccccccH
  0001e	f3 ab		 rep stosd
  00020	48 8b 05 00 00
	00 00		 mov	 rax, QWORD PTR __security_cookie
  00027	48 33 c5	 xor	 rax, rbp
  0002a	48 89 85 d8 00
	00 00		 mov	 QWORD PTR __$ArrayPad$[rbp], rax
  00031	48 8d 0d 00 00
	00 00		 lea	 rcx, OFFSET FLAT:__59E4AADC_tBarrel@c
  00038	e8 00 00 00 00	 call	 __CheckForDebuggerJustMyCode

; 859  : 
; 860  : 	GlobalBarrelService._heap = Heap_ServiceInit(true);

  0003d	b9 01 00 00 00	 mov	 ecx, 1
  00042	e8 00 00 00 00	 call	 Heap_ServiceInit
  00047	48 89 05 00 00
	00 00		 mov	 QWORD PTR GlobalBarrelService, rax

; 861  : 
; 862  : 	if (!GlobalBarrelService._heap)

  0004e	48 83 3d 00 00
	00 00 00	 cmp	 QWORD PTR GlobalBarrelService, 0
  00056	75 14		 jne	 SHORT $LN2@Barrel_Ser

; 863  : 	{
; 864  : 		PREENT("HeapService failed to load!\n");

  00058	48 8d 55 08	 lea	 rdx, QWORD PTR $S18$4[rbp]
  0005c	48 8d 0d 00 00
	00 00		 lea	 rcx, OFFSET FLAT:??_C@_0BN@KILFMLHE@HeapService?5failed?5to?5load?$CB?6@
  00063	e8 00 00 00 00	 call	 Preent

; 865  : 		//GlobalBarrelService._barrelNodes._localFlags = 0;
; 866  : 		return false;

  00068	33 c0		 xor	 eax, eax
  0006a	eb 5c		 jmp	 SHORT $LN1@Barrel_Ser
$LN2@Barrel_Ser:

; 867  : 	}
; 868  : 
; 869  : 	Barrel_NodeCtor(TypeInfo_Get("BarrelNode", sizeof(BarrelNode)), &(GlobalBarrelService.Omegus), NULL, MANAGED | EMPTY, 0, 0);

  0006c	ba 20 00 00 00	 mov	 edx, 32			; 00000020H
  00071	48 8d 0d 00 00
	00 00		 lea	 rcx, OFFSET FLAT:??_C@_0L@GBDDKNMN@BarrelNode@
  00078	e8 00 00 00 00	 call	 TypeInfo_Get
  0007d	c7 44 24 28 00
	00 00 00	 mov	 DWORD PTR [rsp+40], 0
  00085	c7 44 24 20 00
	00 00 00	 mov	 DWORD PTR [rsp+32], 0
  0008d	41 b9 30 00 00
	00		 mov	 r9d, 48			; 00000030H
  00093	45 33 c0	 xor	 r8d, r8d
  00096	48 8d 15 08 00
	00 00		 lea	 rdx, OFFSET FLAT:GlobalBarrelService+8
  0009d	48 8b c8	 mov	 rcx, rax
  000a0	e8 00 00 00 00	 call	 Barrel_NodeCtor

; 870  : 
; 871  : 	GlobalBarrelService._nextAvailable = NONE;

  000a5	c7 05 28 00 00
	00 fe ff ff ff	 mov	 DWORD PTR GlobalBarrelService+40, -2

; 872  : 	GlobalBarrelService._lastPhysicalNode = OMEGA;

  000af	c7 05 2c 00 00
	00 ff ff ff ff	 mov	 DWORD PTR GlobalBarrelService+44, -1

; 873  : 
; 874  : 	GlobalBarrelServiceStarted = true;

  000b9	c7 05 00 00 00
	00 01 00 00 00	 mov	 DWORD PTR GlobalBarrelServiceStarted, 1

; 875  : 
; 876  : 	return true;

  000c3	b8 01 00 00 00	 mov	 eax, 1
$LN1@Barrel_Ser:

; 877  : }

  000c8	48 8b f8	 mov	 rdi, rax
  000cb	48 8d 4d d0	 lea	 rcx, QWORD PTR [rbp-48]
  000cf	48 8d 15 00 00
	00 00		 lea	 rdx, OFFSET FLAT:Barrel_ServiceInit$rtcFrameData
  000d6	e8 00 00 00 00	 call	 _RTC_CheckStackVars
  000db	48 8b c7	 mov	 rax, rdi
  000de	48 8b 8d d8 00
	00 00		 mov	 rcx, QWORD PTR __$ArrayPad$[rbp]
  000e5	48 33 cd	 xor	 rcx, rbp
  000e8	e8 00 00 00 00	 call	 __security_check_cookie
  000ed	48 8d a5 e8 00
	00 00		 lea	 rsp, QWORD PTR [rbp+232]
  000f4	5f		 pop	 rdi
  000f5	5d		 pop	 rbp
  000f6	c3		 ret	 0
Barrel_ServiceInit ENDP
_TEXT	ENDS
; Function compile flags: /Odtp /RTCsu /ZI
; File C:\Repos\BarrelTest\tBarrel.c
;	COMDAT Barrel_Sourced
_TEXT	SEGMENT
newNodeIx$ = 4
lastPhysicalNode$ = 40
newNodePtr$ = 72
$S15$ = 104
$S16$ = 164
$S17$ = 200
__$ArrayPad$ = 424
info$ = 464
srcHead$ = 472
memFlags$ = 480
initCapacity$ = 488
Barrel_Sourced PROC					; COMDAT

; 827  : BarrelNode* Barrel_Sourced(TypeInfo* info, void* srcHead, int memFlags, uint initCapacity) {

$LN5:
  00000	44 89 4c 24 20	 mov	 DWORD PTR [rsp+32], r9d
  00005	44 89 44 24 18	 mov	 DWORD PTR [rsp+24], r8d
  0000a	48 89 54 24 10	 mov	 QWORD PTR [rsp+16], rdx
  0000f	48 89 4c 24 08	 mov	 QWORD PTR [rsp+8], rcx
  00014	55		 push	 rbp
  00015	56		 push	 rsi
  00016	57		 push	 rdi
  00017	48 81 ec e0 01
	00 00		 sub	 rsp, 480		; 000001e0H
  0001e	48 8d 6c 24 30	 lea	 rbp, QWORD PTR [rsp+48]
  00023	48 8d 7c 24 30	 lea	 rdi, QWORD PTR [rsp+48]
  00028	b9 3c 00 00 00	 mov	 ecx, 60			; 0000003cH
  0002d	b8 cc cc cc cc	 mov	 eax, -858993460		; ccccccccH
  00032	f3 ab		 rep stosd
  00034	48 8b 8c 24 08
	02 00 00	 mov	 rcx, QWORD PTR [rsp+520]
  0003c	48 8b 05 00 00
	00 00		 mov	 rax, QWORD PTR __security_cookie
  00043	48 33 c5	 xor	 rax, rbp
  00046	48 89 85 a8 01
	00 00		 mov	 QWORD PTR __$ArrayPad$[rbp], rax
  0004d	48 8d 0d 00 00
	00 00		 lea	 rcx, OFFSET FLAT:__59E4AADC_tBarrel@c
  00054	e8 00 00 00 00	 call	 __CheckForDebuggerJustMyCode

; 828  : 
; 829  : 	// Get the next available node (either a new node must be added to the Omegus vector, or a garbage node will get recycled.
; 830  : 	int newNodeIx = Barrel_NextAvailableNodeIx();

  00059	e8 00 00 00 00	 call	 Barrel_NextAvailableNodeIx
  0005e	89 45 04	 mov	 DWORD PTR newNodeIx$[rbp], eax

; 831  : 	if (newNodeIx < 0)

  00061	83 7d 04 00	 cmp	 DWORD PTR newNodeIx$[rbp], 0
  00065	7d 07		 jge	 SHORT $LN2@Barrel_Sou

; 832  : 		return NULL;

  00067	33 c0		 xor	 eax, eax
  00069	e9 e2 00 00 00	 jmp	 $LN1@Barrel_Sou
$LN2@Barrel_Sou:

; 833  : 
; 834  : 	// Aquire the last physical node so that it can initialize our new one
; 835  : 	BarrelNode* lastPhysicalNode = Barrel_GetLastPhysicalNode();

  0006e	e8 00 00 00 00	 call	 Barrel_GetLastPhysicalNode
  00073	48 89 45 28	 mov	 QWORD PTR lastPhysicalNode$[rbp], rax

; 836  : 	if (!lastPhysicalNode)

  00077	48 83 7d 28 00	 cmp	 QWORD PTR lastPhysicalNode$[rbp], 0
  0007c	75 07		 jne	 SHORT $LN3@Barrel_Sou

; 837  : 		return NULL;

  0007e	33 c0		 xor	 eax, eax
  00080	e9 cb 00 00 00	 jmp	 $LN1@Barrel_Sou
$LN3@Barrel_Sou:

; 838  : 
; 839  : 	lastPhysicalNode->_nextNode = newNodeIx;

  00085	48 8b 45 28	 mov	 rax, QWORD PTR lastPhysicalNode$[rbp]
  00089	8b 4d 04	 mov	 ecx, DWORD PTR newNodeIx$[rbp]
  0008c	89 48 1c	 mov	 DWORD PTR [rax+28], ecx

; 840  : 
; 841  : 	// Increment the global collection's counter before retrieving the ptr
; 842  : 	GlobalBarrelService.Omegus._collection._count++;

  0008f	8b 05 10 00 00
	00		 mov	 eax, DWORD PTR GlobalBarrelService+16
  00095	ff c0		 inc	 eax
  00097	89 05 10 00 00
	00		 mov	 DWORD PTR GlobalBarrelService+16, eax

; 843  : 
; 844  : 	// Initialize the requestedNode once one has been retrieved
; 845  : 	BarrelNode* newNodePtr = Barrel_GetNode(newNodeIx);

  0009d	8b 4d 04	 mov	 ecx, DWORD PTR newNodeIx$[rbp]
  000a0	e8 00 00 00 00	 call	 Barrel_GetNode
  000a5	48 89 45 48	 mov	 QWORD PTR newNodePtr$[rbp], rax

; 846  : 	Barrel_NodeCtor(info, newNodePtr, srcHead, MANAGED | memFlags, initCapacity, lastPhysicalNode->_barrelStart + lastPhysicalNode->_barrelCount);

  000a9	48 8b 45 28	 mov	 rax, QWORD PTR lastPhysicalNode$[rbp]
  000ad	8b 40 18	 mov	 eax, DWORD PTR [rax+24]
  000b0	48 8b 4d 28	 mov	 rcx, QWORD PTR lastPhysicalNode$[rbp]
  000b4	03 41 10	 add	 eax, DWORD PTR [rcx+16]
  000b7	8b 8d e0 01 00
	00		 mov	 ecx, DWORD PTR memFlags$[rbp]
  000bd	83 c9 10	 or	 ecx, 16
  000c0	89 44 24 28	 mov	 DWORD PTR [rsp+40], eax
  000c4	8b 85 e8 01 00
	00		 mov	 eax, DWORD PTR initCapacity$[rbp]
  000ca	89 44 24 20	 mov	 DWORD PTR [rsp+32], eax
  000ce	44 8b c9	 mov	 r9d, ecx
  000d1	4c 8b 85 d8 01
	00 00		 mov	 r8, QWORD PTR srcHead$[rbp]
  000d8	48 8b 55 48	 mov	 rdx, QWORD PTR newNodePtr$[rbp]
  000dc	48 8b 8d d0 01
	00 00		 mov	 rcx, QWORD PTR info$[rbp]
  000e3	e8 00 00 00 00	 call	 Barrel_NodeCtor

; 847  : 
; 848  : 	// Set the last physical node
; 849  : 	Barrel_SetLastPhysicalNode(newNodeIx);

  000e8	8b 4d 04	 mov	 ecx, DWORD PTR newNodeIx$[rbp]
  000eb	e8 00 00 00 00	 call	 Barrel_SetLastPhysicalNode

; 850  : 
; 851  : 	PREENT_SAFE("BarrelCount: %\n", fmt_i(newNodePtr->_collection._count));

  000f0	c7 45 68 09 00
	00 00		 mov	 DWORD PTR $S15$[rbp], 9
  000f7	48 8b 45 48	 mov	 rax, QWORD PTR newNodePtr$[rbp]
  000fb	8b 40 08	 mov	 eax, DWORD PTR [rax+8]
  000fe	89 85 a4 00 00
	00		 mov	 DWORD PTR $S16$[rbp], eax
  00104	48 8d 85 a4 00
	00 00		 lea	 rax, QWORD PTR $S16$[rbp]
  0010b	48 89 45 70	 mov	 QWORD PTR $S15$[rbp+8], rax
  0010f	c7 85 c8 00 00
	00 fe ff ff ff	 mov	 DWORD PTR $S17$[rbp], -2
  00119	48 c7 85 d0 00
	00 00 00 00 00
	00		 mov	 QWORD PTR $S17$[rbp+8], 0
  00124	48 8d 45 78	 lea	 rax, QWORD PTR $S15$[rbp+16]
  00128	48 8d 8d c8 00
	00 00		 lea	 rcx, QWORD PTR $S17$[rbp]
  0012f	48 8b f8	 mov	 rdi, rax
  00132	48 8b f1	 mov	 rsi, rcx
  00135	b9 10 00 00 00	 mov	 ecx, 16
  0013a	f3 a4		 rep movsb
  0013c	48 8d 55 68	 lea	 rdx, QWORD PTR $S15$[rbp]
  00140	48 8d 0d 00 00
	00 00		 lea	 rcx, OFFSET FLAT:??_C@_0BA@KMNOCOCN@BarrelCount?3?5?$CF?6@
  00147	e8 00 00 00 00	 call	 Preent

; 852  : 
; 853  : 	// Return the new BarrelNode to the user
; 854  : 	return newNodePtr;

  0014c	48 8b 45 48	 mov	 rax, QWORD PTR newNodePtr$[rbp]
$LN1@Barrel_Sou:

; 855  : }

  00150	48 8b f8	 mov	 rdi, rax
  00153	48 8d 4d d0	 lea	 rcx, QWORD PTR [rbp-48]
  00157	48 8d 15 00 00
	00 00		 lea	 rdx, OFFSET FLAT:Barrel_Sourced$rtcFrameData
  0015e	e8 00 00 00 00	 call	 _RTC_CheckStackVars
  00163	48 8b c7	 mov	 rax, rdi
  00166	48 8b 8d a8 01
	00 00		 mov	 rcx, QWORD PTR __$ArrayPad$[rbp]
  0016d	48 33 cd	 xor	 rcx, rbp
  00170	e8 00 00 00 00	 call	 __security_check_cookie
  00175	48 8d a5 b0 01
	00 00		 lea	 rsp, QWORD PTR [rbp+432]
  0017c	5f		 pop	 rdi
  0017d	5e		 pop	 rsi
  0017e	5d		 pop	 rbp
  0017f	c3		 ret	 0
Barrel_Sourced ENDP
_TEXT	ENDS
; Function compile flags: /Odtp /RTCsu /ZI
; File C:\Repos\BarrelTest\tBarrel.c
;	COMDAT Barrel_NodeCtor
_TEXT	SEGMENT
empty$ = 4
fill$ = 36
newBarrelCount$ = 68
neededSpace$ = 104
newSize$ = 136
collTmp$ = 168
barrelHead$ = 216
i$4 = 244
$T5 = 472
tv83 = 500
tv87 = 504
tv77 = 504
__$ArrayPad$ = 512
info$ = 560
loc$ = 568
srcHead$ = 576
memFlags$ = 584
initCapacity$ = 592
startBarrel$ = 600
Barrel_NodeCtor PROC					; COMDAT

; 787  : void Barrel_NodeCtor(TypeInfo* info, BarrelNode* loc, void* srcHead, int memFlags, uint initCapacity, uint startBarrel) {

$LN13:
  00000	44 89 4c 24 20	 mov	 DWORD PTR [rsp+32], r9d
  00005	4c 89 44 24 18	 mov	 QWORD PTR [rsp+24], r8
  0000a	48 89 54 24 10	 mov	 QWORD PTR [rsp+16], rdx
  0000f	48 89 4c 24 08	 mov	 QWORD PTR [rsp+8], rcx
  00014	55		 push	 rbp
  00015	56		 push	 rsi
  00016	57		 push	 rdi
  00017	48 81 ec 30 02
	00 00		 sub	 rsp, 560		; 00000230H
  0001e	48 8d 6c 24 20	 lea	 rbp, QWORD PTR [rsp+32]
  00023	48 8d 7c 24 20	 lea	 rdi, QWORD PTR [rsp+32]
  00028	b9 54 00 00 00	 mov	 ecx, 84			; 00000054H
  0002d	b8 cc cc cc cc	 mov	 eax, -858993460		; ccccccccH
  00032	f3 ab		 rep stosd
  00034	48 8b 8c 24 58
	02 00 00	 mov	 rcx, QWORD PTR [rsp+600]
  0003c	48 8b 05 00 00
	00 00		 mov	 rax, QWORD PTR __security_cookie
  00043	48 33 c5	 xor	 rax, rbp
  00046	48 89 85 00 02
	00 00		 mov	 QWORD PTR __$ArrayPad$[rbp], rax
  0004d	48 8d 0d 00 00
	00 00		 lea	 rcx, OFFSET FLAT:__59E4AADC_tBarrel@c
  00054	e8 00 00 00 00	 call	 __CheckForDebuggerJustMyCode

; 788  : 
; 789  : 	loc->_barrelStart = startBarrel;

  00059	48 8b 85 38 02
	00 00		 mov	 rax, QWORD PTR loc$[rbp]
  00060	8b 8d 58 02 00
	00		 mov	 ecx, DWORD PTR startBarrel$[rbp]
  00066	89 48 18	 mov	 DWORD PTR [rax+24], ecx

; 790  : 
; 791  : 	bool empty = memFlags & EMPTY;

  00069	8b 85 48 02 00
	00		 mov	 eax, DWORD PTR memFlags$[rbp]
  0006f	83 e0 20	 and	 eax, 32			; 00000020H
  00072	89 45 04	 mov	 DWORD PTR empty$[rbp], eax

; 792  : 	bool fill = memFlags & FILL;

  00075	8b 85 48 02 00
	00		 mov	 eax, DWORD PTR memFlags$[rbp]
  0007b	83 e0 40	 and	 eax, 64			; 00000040H
  0007e	89 45 24	 mov	 DWORD PTR fill$[rbp], eax

; 793  : 	memFlags &= !(EMPTY);

  00081	8b 85 48 02 00
	00		 mov	 eax, DWORD PTR memFlags$[rbp]
  00087	83 e0 00	 and	 eax, 0
  0008a	89 85 48 02 00
	00		 mov	 DWORD PTR memFlags$[rbp], eax

; 794  : 	memFlags &= !(FILL);

  00090	8b 85 48 02 00
	00		 mov	 eax, DWORD PTR memFlags$[rbp]
  00096	83 e0 00	 and	 eax, 0
  00099	89 85 48 02 00
	00		 mov	 DWORD PTR memFlags$[rbp], eax

; 795  : 	memFlags |= FIXED_SIZE;

  0009f	8b 85 48 02 00
	00		 mov	 eax, DWORD PTR memFlags$[rbp]
  000a5	83 c8 02	 or	 eax, 2
  000a8	89 85 48 02 00
	00		 mov	 DWORD PTR memFlags$[rbp], eax

; 796  : 
; 797  : 	int newBarrelCount = 1;

  000ae	c7 45 44 01 00
	00 00		 mov	 DWORD PTR newBarrelCount$[rbp], 1

; 798  : 	size_t neededSpace = info->_size * initCapacity;

  000b5	8b 85 50 02 00
	00		 mov	 eax, DWORD PTR initCapacity$[rbp]
  000bb	48 8b 8d 30 02
	00 00		 mov	 rcx, QWORD PTR info$[rbp]
  000c2	48 8b 49 08	 mov	 rcx, QWORD PTR [rcx+8]
  000c6	48 0f af c8	 imul	 rcx, rax
  000ca	48 8b c1	 mov	 rax, rcx
  000cd	48 89 45 68	 mov	 QWORD PTR neededSpace$[rbp], rax
$LN2@Barrel_Nod:

; 799  : 
; 800  : 	while (	(newBarrelCount * sizeof(Barrel) < neededSpace) &&

  000d1	48 63 45 44	 movsxd	 rax, DWORD PTR newBarrelCount$[rbp]
  000d5	48 6b c0 20	 imul	 rax, rax, 32		; 00000020H
  000d9	48 3b 45 68	 cmp	 rax, QWORD PTR neededSpace$[rbp]
  000dd	73 2a		 jae	 SHORT $LN3@Barrel_Nod
  000df	48 63 45 44	 movsxd	 rax, DWORD PTR newBarrelCount$[rbp]
  000e3	48 6b c0 20	 imul	 rax, rax, 32		; 00000020H
  000e7	48 89 85 f8 01
	00 00		 mov	 QWORD PTR tv77[rbp], rax
  000ee	e8 00 00 00 00	 call	 Heap_Remaining
  000f3	48 8b 8d f8 01
	00 00		 mov	 rcx, QWORD PTR tv77[rbp]
  000fa	48 3b c8	 cmp	 rcx, rax
  000fd	73 0a		 jae	 SHORT $LN3@Barrel_Nod

; 801  : 			(newBarrelCount * sizeof(Barrel) < Heap_Remaining()))
; 802  : 		newBarrelCount *= 2;

  000ff	8b 45 44	 mov	 eax, DWORD PTR newBarrelCount$[rbp]
  00102	d1 e0		 shl	 eax, 1
  00104	89 45 44	 mov	 DWORD PTR newBarrelCount$[rbp], eax
  00107	eb c8		 jmp	 SHORT $LN2@Barrel_Nod
$LN3@Barrel_Nod:

; 803  : 
; 804  : 	loc->_barrelCount = empty ? 0 : newBarrelCount;

  00109	83 7d 04 00	 cmp	 DWORD PTR empty$[rbp], 0
  0010d	74 0c		 je	 SHORT $LN9@Barrel_Nod
  0010f	c7 85 f4 01 00
	00 00 00 00 00	 mov	 DWORD PTR tv83[rbp], 0
  00119	eb 09		 jmp	 SHORT $LN10@Barrel_Nod
$LN9@Barrel_Nod:
  0011b	8b 45 44	 mov	 eax, DWORD PTR newBarrelCount$[rbp]
  0011e	89 85 f4 01 00
	00		 mov	 DWORD PTR tv83[rbp], eax
$LN10@Barrel_Nod:
  00124	48 8b 85 38 02
	00 00		 mov	 rax, QWORD PTR loc$[rbp]
  0012b	8b 8d f4 01 00
	00		 mov	 ecx, DWORD PTR tv83[rbp]
  00131	89 48 10	 mov	 DWORD PTR [rax+16], ecx

; 805  : 
; 806  : 	size_t newSize = newBarrelCount * sizeof(Barrel);

  00134	48 63 45 44	 movsxd	 rax, DWORD PTR newBarrelCount$[rbp]
  00138	48 6b c0 20	 imul	 rax, rax, 32		; 00000020H
  0013c	48 89 85 88 00
	00 00		 mov	 QWORD PTR newSize$[rbp], rax

; 807  : 
; 808  : 	initCapacity = (neededSpace < newSize ? neededSpace : newSize) / info->_size;

  00143	48 8b 85 88 00
	00 00		 mov	 rax, QWORD PTR newSize$[rbp]
  0014a	48 39 45 68	 cmp	 QWORD PTR neededSpace$[rbp], rax
  0014e	73 0d		 jae	 SHORT $LN11@Barrel_Nod
  00150	48 8b 45 68	 mov	 rax, QWORD PTR neededSpace$[rbp]
  00154	48 89 85 f8 01
	00 00		 mov	 QWORD PTR tv87[rbp], rax
  0015b	eb 0e		 jmp	 SHORT $LN12@Barrel_Nod
$LN11@Barrel_Nod:
  0015d	48 8b 85 88 00
	00 00		 mov	 rax, QWORD PTR newSize$[rbp]
  00164	48 89 85 f8 01
	00 00		 mov	 QWORD PTR tv87[rbp], rax
$LN12@Barrel_Nod:
  0016b	33 d2		 xor	 edx, edx
  0016d	48 8b 85 f8 01
	00 00		 mov	 rax, QWORD PTR tv87[rbp]
  00174	48 8b 8d 30 02
	00 00		 mov	 rcx, QWORD PTR info$[rbp]
  0017b	48 f7 71 08	 div	 QWORD PTR [rcx+8]
  0017f	89 85 50 02 00
	00		 mov	 DWORD PTR initCapacity$[rbp], eax

; 809  : 
; 810  : 	Collection collTmp = Collection_Create(Collection_GetExtensions(info, Barrel_Extensions, memFlags), initCapacity);

  00185	44 8b 85 48 02
	00 00		 mov	 r8d, DWORD PTR memFlags$[rbp]
  0018c	48 8d 15 00 00
	00 00		 lea	 rdx, OFFSET FLAT:Barrel_Extensions
  00193	48 8b 8d 30 02
	00 00		 mov	 rcx, QWORD PTR info$[rbp]
  0019a	e8 00 00 00 00	 call	 Collection_GetExtensions
  0019f	44 8b 85 50 02
	00 00		 mov	 r8d, DWORD PTR initCapacity$[rbp]
  001a6	48 8b d0	 mov	 rdx, rax
  001a9	48 8d 8d d8 01
	00 00		 lea	 rcx, QWORD PTR $T5[rbp]
  001b0	e8 00 00 00 00	 call	 Collection_Create
  001b5	48 8d 8d a8 00
	00 00		 lea	 rcx, QWORD PTR collTmp$[rbp]
  001bc	48 8b f9	 mov	 rdi, rcx
  001bf	48 8b f0	 mov	 rsi, rax
  001c2	b9 10 00 00 00	 mov	 ecx, 16
  001c7	f3 a4		 rep movsb

; 811  : 
; 812  : 	rawTranscribe(&(loc->_collection), &collTmp, sizeof(Collection));

  001c9	48 8b 85 38 02
	00 00		 mov	 rax, QWORD PTR loc$[rbp]
  001d0	41 b8 10 00 00
	00		 mov	 r8d, 16
  001d6	48 8d 95 a8 00
	00 00		 lea	 rdx, QWORD PTR collTmp$[rbp]
  001dd	48 8b c8	 mov	 rcx, rax
  001e0	e8 00 00 00 00	 call	 rawTranscribe

; 813  : 
; 814  : 	loc->_barrelOffset = loc->_barrelCount;

  001e5	48 8b 85 38 02
	00 00		 mov	 rax, QWORD PTR loc$[rbp]
  001ec	48 8b 8d 38 02
	00 00		 mov	 rcx, QWORD PTR loc$[rbp]
  001f3	8b 49 10	 mov	 ecx, DWORD PTR [rcx+16]
  001f6	89 48 14	 mov	 DWORD PTR [rax+20], ecx

; 815  : 	loc->_nextNode = NONE;

  001f9	48 8b 85 38 02
	00 00		 mov	 rax, QWORD PTR loc$[rbp]
  00200	c7 40 1c fe ff
	ff ff		 mov	 DWORD PTR [rax+28], -2

; 816  : 
; 817  : 	void* barrelHead = Barrel_GetBarrelPtr(startBarrel);

  00207	8b 8d 58 02 00
	00		 mov	 ecx, DWORD PTR startBarrel$[rbp]
  0020d	e8 00 00 00 00	 call	 Barrel_GetBarrelPtr
  00212	48 89 85 d8 00
	00 00		 mov	 QWORD PTR barrelHead$[rbp], rax

; 818  : 	
; 819  : 	if (srcHead)

  00219	48 83 bd 40 02
	00 00 00	 cmp	 QWORD PTR srcHead$[rbp], 0
  00221	74 7d		 je	 SHORT $LN7@Barrel_Nod

; 820  : 		for (int i = 0; i < initCapacity; i++)

  00223	c7 85 f4 00 00
	00 00 00 00 00	 mov	 DWORD PTR i$4[rbp], 0
  0022d	eb 0e		 jmp	 SHORT $LN6@Barrel_Nod
$LN4@Barrel_Nod:
  0022f	8b 85 f4 00 00
	00		 mov	 eax, DWORD PTR i$4[rbp]
  00235	ff c0		 inc	 eax
  00237	89 85 f4 00 00
	00		 mov	 DWORD PTR i$4[rbp], eax
$LN6@Barrel_Nod:
  0023d	8b 85 50 02 00
	00		 mov	 eax, DWORD PTR initCapacity$[rbp]
  00243	39 85 f4 00 00
	00		 cmp	 DWORD PTR i$4[rbp], eax
  00249	73 55		 jae	 SHORT $LN5@Barrel_Nod

; 821  : 			rawTranscribe(&((char*)barrelHead)[i * info->_size], &((char*)srcHead)[i * info->_size], info->_size);

  0024b	48 63 85 f4 00
	00 00		 movsxd	 rax, DWORD PTR i$4[rbp]
  00252	48 8b 8d 30 02
	00 00		 mov	 rcx, QWORD PTR info$[rbp]
  00259	48 0f af 41 08	 imul	 rax, QWORD PTR [rcx+8]
  0025e	48 8b 8d 40 02
	00 00		 mov	 rcx, QWORD PTR srcHead$[rbp]
  00265	48 03 c8	 add	 rcx, rax
  00268	48 8b c1	 mov	 rax, rcx
  0026b	48 63 8d f4 00
	00 00		 movsxd	 rcx, DWORD PTR i$4[rbp]
  00272	48 8b 95 30 02
	00 00		 mov	 rdx, QWORD PTR info$[rbp]
  00279	48 0f af 4a 08	 imul	 rcx, QWORD PTR [rdx+8]
  0027e	48 8b 95 d8 00
	00 00		 mov	 rdx, QWORD PTR barrelHead$[rbp]
  00285	48 03 d1	 add	 rdx, rcx
  00288	48 8b ca	 mov	 rcx, rdx
  0028b	48 8b 95 30 02
	00 00		 mov	 rdx, QWORD PTR info$[rbp]
  00292	4c 8b 42 08	 mov	 r8, QWORD PTR [rdx+8]
  00296	48 8b d0	 mov	 rdx, rax
  00299	e8 00 00 00 00	 call	 rawTranscribe
  0029e	eb 8f		 jmp	 SHORT $LN4@Barrel_Nod
$LN5@Barrel_Nod:
$LN7@Barrel_Nod:

; 822  : 
; 823  : 	//if (srcHead)
; 824  : 	//	Collection_WriteSpan(loc, srcHead, 0, initCapacity);
; 825  : }

  002a0	48 8d 4d e0	 lea	 rcx, QWORD PTR [rbp-32]
  002a4	48 8d 15 00 00
	00 00		 lea	 rdx, OFFSET FLAT:Barrel_NodeCtor$rtcFrameData
  002ab	e8 00 00 00 00	 call	 _RTC_CheckStackVars
  002b0	48 8b 8d 00 02
	00 00		 mov	 rcx, QWORD PTR __$ArrayPad$[rbp]
  002b7	48 33 cd	 xor	 rcx, rbp
  002ba	e8 00 00 00 00	 call	 __security_check_cookie
  002bf	48 8d a5 10 02
	00 00		 lea	 rsp, QWORD PTR [rbp+528]
  002c6	5f		 pop	 rdi
  002c7	5e		 pop	 rsi
  002c8	5d		 pop	 rbp
  002c9	c3		 ret	 0
Barrel_NodeCtor ENDP
_TEXT	ENDS
; Function compile flags: /Odtp /RTCsu /ZI
; File C:\Repos\BarrelTest\tBarrel.c
;	COMDAT Barrel_Extensions
_TEXT	SEGMENT
$T1 = 208
$T2 = 256
$T3 = 304
tv65 = 324
request$ = 368
Barrel_Extensions PROC					; COMDAT

; 767  : bool Barrel_Extensions(REQUEST request) {

$LN9:
  00000	48 89 4c 24 08	 mov	 QWORD PTR [rsp+8], rcx
  00005	55		 push	 rbp
  00006	56		 push	 rsi
  00007	57		 push	 rdi
  00008	48 81 ec 70 01
	00 00		 sub	 rsp, 368		; 00000170H
  0000f	48 8d 6c 24 20	 lea	 rbp, QWORD PTR [rsp+32]
  00014	48 8d 0d 00 00
	00 00		 lea	 rcx, OFFSET FLAT:__59E4AADC_tBarrel@c
  0001b	e8 00 00 00 00	 call	 __CheckForDebuggerJustMyCode

; 768  : 	switch (request._type)

  00020	48 8b 85 70 01
	00 00		 mov	 rax, QWORD PTR request$[rbp]
  00027	8b 00		 mov	 eax, DWORD PTR [rax]
  00029	89 85 44 01 00
	00		 mov	 DWORD PTR tv65[rbp], eax
  0002f	83 bd 44 01 00
	00 04		 cmp	 DWORD PTR tv65[rbp], 4
  00036	74 14		 je	 SHORT $LN4@Barrel_Ext
  00038	83 bd 44 01 00
	00 08		 cmp	 DWORD PTR tv65[rbp], 8
  0003f	74 57		 je	 SHORT $LN6@Barrel_Ext
  00041	83 bd 44 01 00
	00 0a		 cmp	 DWORD PTR tv65[rbp], 10
  00048	74 28		 je	 SHORT $LN5@Barrel_Ext
  0004a	eb 72		 jmp	 SHORT $LN7@Barrel_Ext
$LN4@Barrel_Ext:

; 769  : 	{
; 770  : 
; 771  : 	case INFO:
; 772  : 		return Barrel_Info(request);

  0004c	48 8d 85 d0 00
	00 00		 lea	 rax, QWORD PTR $T1[rbp]
  00053	48 8b f8	 mov	 rdi, rax
  00056	48 8b b5 70 01
	00 00		 mov	 rsi, QWORD PTR request$[rbp]
  0005d	b9 10 00 00 00	 mov	 ecx, 16
  00062	f3 a4		 rep movsb
  00064	48 8d 8d d0 00
	00 00		 lea	 rcx, QWORD PTR $T1[rbp]
  0006b	e8 00 00 00 00	 call	 Barrel_Info
  00070	eb 4e		 jmp	 SHORT $LN1@Barrel_Ext
$LN5@Barrel_Ext:

; 773  : 
; 774  : 	case TRANSCRIBE:
; 775  : 		return Barrel_Transcribe(request);

  00072	48 8d 85 00 01
	00 00		 lea	 rax, QWORD PTR $T2[rbp]
  00079	48 8b f8	 mov	 rdi, rax
  0007c	48 8b b5 70 01
	00 00		 mov	 rsi, QWORD PTR request$[rbp]
  00083	b9 10 00 00 00	 mov	 ecx, 16
  00088	f3 a4		 rep movsb
  0008a	48 8d 8d 00 01
	00 00		 lea	 rcx, QWORD PTR $T2[rbp]
  00091	e8 00 00 00 00	 call	 Barrel_Transcribe
  00096	eb 28		 jmp	 SHORT $LN1@Barrel_Ext
$LN6@Barrel_Ext:

; 776  : 
; 777  : 	case MANAGE:
; 778  : 		return Barrel_Manage(request);

  00098	48 8d 85 30 01
	00 00		 lea	 rax, QWORD PTR $T3[rbp]
  0009f	48 8b f8	 mov	 rdi, rax
  000a2	48 8b b5 70 01
	00 00		 mov	 rsi, QWORD PTR request$[rbp]
  000a9	b9 10 00 00 00	 mov	 ecx, 16
  000ae	f3 a4		 rep movsb
  000b0	48 8d 8d 30 01
	00 00		 lea	 rcx, QWORD PTR $T3[rbp]
  000b7	e8 00 00 00 00	 call	 Barrel_Manage
  000bc	eb 02		 jmp	 SHORT $LN1@Barrel_Ext
$LN7@Barrel_Ext:

; 779  : 
; 780  : 	default:
; 781  : 		return false;

  000be	33 c0		 xor	 eax, eax
$LN1@Barrel_Ext:

; 782  : 	}
; 783  : }

  000c0	48 8d a5 50 01
	00 00		 lea	 rsp, QWORD PTR [rbp+336]
  000c7	5f		 pop	 rdi
  000c8	5e		 pop	 rsi
  000c9	5d		 pop	 rbp
  000ca	c3		 ret	 0
Barrel_Extensions ENDP
_TEXT	ENDS
; Function compile flags: /Odtp /RTCsu /ZI
; File C:\Repos\BarrelTest\tBarrel.c
;	COMDAT Barrel_Info
_TEXT	SEGMENT
barrelNode$ = 8
var$ = 36
output$ = 72
$T1 = 304
tv73 = 324
request$ = 368
Barrel_Info PROC					; COMDAT

; 743  : inline bool Barrel_Info(REQUEST request){

$LN10:
  00000	48 89 4c 24 08	 mov	 QWORD PTR [rsp+8], rcx
  00005	55		 push	 rbp
  00006	56		 push	 rsi
  00007	57		 push	 rdi
  00008	48 81 ec 70 01
	00 00		 sub	 rsp, 368		; 00000170H
  0000f	48 8d 6c 24 20	 lea	 rbp, QWORD PTR [rsp+32]
  00014	48 8d 0d 00 00
	00 00		 lea	 rcx, OFFSET FLAT:__59E4AADC_tBarrel@c
  0001b	e8 00 00 00 00	 call	 __CheckForDebuggerJustMyCode

; 744  : 	BarrelNode* barrelNode = request._params[tSRC];

  00020	b8 08 00 00 00	 mov	 eax, 8
  00025	48 6b c0 02	 imul	 rax, rax, 2
  00029	48 8b 8d 70 01
	00 00		 mov	 rcx, QWORD PTR request$[rbp]
  00030	48 8b 49 08	 mov	 rcx, QWORD PTR [rcx+8]
  00034	48 8b 04 08	 mov	 rax, QWORD PTR [rax+rcx]
  00038	48 89 45 08	 mov	 QWORD PTR barrelNode$[rbp], rax

; 745  : 	ParamType var = (ParamType)request._params[tVARIANT];

  0003c	b8 08 00 00 00	 mov	 eax, 8
  00041	48 6b c0 00	 imul	 rax, rax, 0
  00045	48 8b 8d 70 01
	00 00		 mov	 rcx, QWORD PTR request$[rbp]
  0004c	48 8b 49 08	 mov	 rcx, QWORD PTR [rcx+8]
  00050	8b 04 08	 mov	 eax, DWORD PTR [rax+rcx]
  00053	89 45 24	 mov	 DWORD PTR var$[rbp], eax

; 746  : 	void* output = request._params[tTRG];

  00056	b8 08 00 00 00	 mov	 eax, 8
  0005b	48 6b c0 01	 imul	 rax, rax, 1
  0005f	48 8b 8d 70 01
	00 00		 mov	 rcx, QWORD PTR request$[rbp]
  00066	48 8b 49 08	 mov	 rcx, QWORD PTR [rcx+8]
  0006a	48 8b 04 08	 mov	 rax, QWORD PTR [rax+rcx]
  0006e	48 89 45 48	 mov	 QWORD PTR output$[rbp], rax

; 747  : 
; 748  : 	switch (var) {

  00072	8b 45 24	 mov	 eax, DWORD PTR var$[rbp]
  00075	89 85 44 01 00
	00		 mov	 DWORD PTR tv73[rbp], eax
  0007b	83 bd 44 01 00
	00 06		 cmp	 DWORD PTR tv73[rbp], 6
  00082	74 47		 je	 SHORT $LN7@Barrel_Inf
  00084	83 bd 44 01 00
	00 07		 cmp	 DWORD PTR tv73[rbp], 7
  0008b	74 14		 je	 SHORT $LN4@Barrel_Inf
  0008d	83 bd 44 01 00
	00 08		 cmp	 DWORD PTR tv73[rbp], 8
  00094	74 1f		 je	 SHORT $LN5@Barrel_Inf
  00096	83 bd 44 01 00
	00 09		 cmp	 DWORD PTR tv73[rbp], 9
  0009d	74 2c		 je	 SHORT $LN6@Barrel_Inf
  0009f	eb 50		 jmp	 SHORT $LN8@Barrel_Inf
$LN4@Barrel_Inf:

; 749  : 
; 750  : 	case tCOUNT:
; 751  : 		*((uint*)output) = barrelNode->_collection._count;

  000a1	48 8b 45 48	 mov	 rax, QWORD PTR output$[rbp]
  000a5	48 8b 4d 08	 mov	 rcx, QWORD PTR barrelNode$[rbp]
  000a9	8b 49 08	 mov	 ecx, DWORD PTR [rcx+8]
  000ac	89 08		 mov	 DWORD PTR [rax], ecx

; 752  : 		return true;

  000ae	b8 01 00 00 00	 mov	 eax, 1
  000b3	eb 3e		 jmp	 SHORT $LN1@Barrel_Inf
$LN5@Barrel_Inf:

; 753  : 
; 754  : 	case tCAPACITY:
; 755  : 		*((uint*)output) = Barrel_Capacity(barrelNode);

  000b5	48 8b 4d 08	 mov	 rcx, QWORD PTR barrelNode$[rbp]
  000b9	e8 00 00 00 00	 call	 Barrel_Capacity
  000be	48 8b 4d 48	 mov	 rcx, QWORD PTR output$[rbp]
  000c2	89 01		 mov	 DWORD PTR [rcx], eax

; 756  : 		return true;

  000c4	b8 01 00 00 00	 mov	 eax, 1
  000c9	eb 28		 jmp	 SHORT $LN1@Barrel_Inf
$LN6@Barrel_Inf:
$LN7@Barrel_Inf:

; 757  : 
; 758  : 	case tNAME:
; 759  : 	case tSIZE:
; 760  : 		return TypeInfo_GetInfo(request);

  000cb	48 8d 85 30 01
	00 00		 lea	 rax, QWORD PTR $T1[rbp]
  000d2	48 8b f8	 mov	 rdi, rax
  000d5	48 8b b5 70 01
	00 00		 mov	 rsi, QWORD PTR request$[rbp]
  000dc	b9 10 00 00 00	 mov	 ecx, 16
  000e1	f3 a4		 rep movsb
  000e3	48 8d 8d 30 01
	00 00		 lea	 rcx, QWORD PTR $T1[rbp]
  000ea	e8 00 00 00 00	 call	 TypeInfo_GetInfo
  000ef	eb 02		 jmp	 SHORT $LN1@Barrel_Inf
$LN8@Barrel_Inf:

; 761  : 
; 762  : 	default:
; 763  : 		return false;

  000f1	33 c0		 xor	 eax, eax
$LN1@Barrel_Inf:

; 764  : 	}
; 765  : }

  000f3	48 8d a5 50 01
	00 00		 lea	 rsp, QWORD PTR [rbp+336]
  000fa	5f		 pop	 rdi
  000fb	5e		 pop	 rsi
  000fc	5d		 pop	 rbp
  000fd	c3		 ret	 0
Barrel_Info ENDP
_TEXT	ENDS
; Function compile flags: /Odtp /RTCsu /ZI
; File C:\Repos\BarrelTest\tBarrel.c
;	COMDAT Barrel_Transcribe
_TEXT	SEGMENT
request$ = 224
Barrel_Transcribe PROC					; COMDAT

; 740  : inline bool Barrel_Transcribe(REQUEST request){

$LN3:
  00000	48 89 4c 24 08	 mov	 QWORD PTR [rsp+8], rcx
  00005	55		 push	 rbp
  00006	57		 push	 rdi
  00007	48 81 ec e8 00
	00 00		 sub	 rsp, 232		; 000000e8H
  0000e	48 8d 6c 24 20	 lea	 rbp, QWORD PTR [rsp+32]
  00013	48 8d 0d 00 00
	00 00		 lea	 rcx, OFFSET FLAT:__59E4AADC_tBarrel@c
  0001a	e8 00 00 00 00	 call	 __CheckForDebuggerJustMyCode

; 741  : 	return false;

  0001f	33 c0		 xor	 eax, eax

; 742  : }

  00021	48 8d a5 c8 00
	00 00		 lea	 rsp, QWORD PTR [rbp+200]
  00028	5f		 pop	 rdi
  00029	5d		 pop	 rbp
  0002a	c3		 ret	 0
Barrel_Transcribe ENDP
_TEXT	ENDS
; Function compile flags: /Odtp /RTCsu /ZI
; File C:\Repos\BarrelTest\tBarrel.c
;	COMDAT Barrel_Manage
_TEXT	SEGMENT
var$ = 4
barrelNode$ = 40
$T1 = 272
$T2 = 320
tv70 = 340
request$ = 384
Barrel_Manage PROC					; COMDAT

; 713  : inline bool Barrel_Manage(REQUEST request){

$LN11:
  00000	48 89 4c 24 08	 mov	 QWORD PTR [rsp+8], rcx
  00005	55		 push	 rbp
  00006	56		 push	 rsi
  00007	57		 push	 rdi
  00008	48 81 ec 80 01
	00 00		 sub	 rsp, 384		; 00000180H
  0000f	48 8d 6c 24 20	 lea	 rbp, QWORD PTR [rsp+32]
  00014	48 8d 0d 00 00
	00 00		 lea	 rcx, OFFSET FLAT:__59E4AADC_tBarrel@c
  0001b	e8 00 00 00 00	 call	 __CheckForDebuggerJustMyCode

; 714  : 	ParamType var = (ParamType)request._params[tVARIANT];

  00020	b8 08 00 00 00	 mov	 eax, 8
  00025	48 6b c0 00	 imul	 rax, rax, 0
  00029	48 8b 8d 80 01
	00 00		 mov	 rcx, QWORD PTR request$[rbp]
  00030	48 8b 49 08	 mov	 rcx, QWORD PTR [rcx+8]
  00034	8b 04 08	 mov	 eax, DWORD PTR [rax+rcx]
  00037	89 45 04	 mov	 DWORD PTR var$[rbp], eax

; 715  : 	BarrelNode* barrelNode = request._params[tSRC];

  0003a	b8 08 00 00 00	 mov	 eax, 8
  0003f	48 6b c0 02	 imul	 rax, rax, 2
  00043	48 8b 8d 80 01
	00 00		 mov	 rcx, QWORD PTR request$[rbp]
  0004a	48 8b 49 08	 mov	 rcx, QWORD PTR [rcx+8]
  0004e	48 8b 04 08	 mov	 rax, QWORD PTR [rax+rcx]
  00052	48 89 45 28	 mov	 QWORD PTR barrelNode$[rbp], rax

; 716  : 
; 717  : 	switch (var)

  00056	8b 45 04	 mov	 eax, DWORD PTR var$[rbp]
  00059	89 85 54 01 00
	00		 mov	 DWORD PTR tv70[rbp], eax
  0005f	83 bd 54 01 00
	00 05		 cmp	 DWORD PTR tv70[rbp], 5
  00066	74 2d		 je	 SHORT $LN4@Barrel_Man
  00068	83 bd 54 01 00
	00 07		 cmp	 DWORD PTR tv70[rbp], 7
  0006f	74 6a		 je	 SHORT $LN5@Barrel_Man
  00071	83 bd 54 01 00
	00 09		 cmp	 DWORD PTR tv70[rbp], 9
  00078	74 6c		 je	 SHORT $LN6@Barrel_Man
  0007a	83 bd 54 01 00
	00 12		 cmp	 DWORD PTR tv70[rbp], 18
  00081	74 6e		 je	 SHORT $LN7@Barrel_Man
  00083	83 bd 54 01 00
	00 14		 cmp	 DWORD PTR tv70[rbp], 20
  0008a	0f 84 87 00 00
	00		 je	 $LN8@Barrel_Man
  00090	e9 a8 00 00 00	 jmp	 $LN9@Barrel_Man
$LN4@Barrel_Man:

; 718  : 	{
; 719  : 	case tCHUNK:
; 720  : 		request._params[tSIZE] = barrelNode->_barrelCount * sizeof(Barrel);

  00095	48 8b 45 28	 mov	 rax, QWORD PTR barrelNode$[rbp]
  00099	8b 40 10	 mov	 eax, DWORD PTR [rax+16]
  0009c	48 6b c0 20	 imul	 rax, rax, 32		; 00000020H
  000a0	b9 08 00 00 00	 mov	 ecx, 8
  000a5	48 6b c9 06	 imul	 rcx, rcx, 6
  000a9	48 8b 95 80 01
	00 00		 mov	 rdx, QWORD PTR request$[rbp]
  000b0	48 8b 52 08	 mov	 rdx, QWORD PTR [rdx+8]
  000b4	48 89 04 11	 mov	 QWORD PTR [rcx+rdx], rax

; 721  : 		return Barrel_GetChunk(barrelNode, request._params[tTRG]);

  000b8	b8 08 00 00 00	 mov	 eax, 8
  000bd	48 6b c0 01	 imul	 rax, rax, 1
  000c1	48 8b 8d 80 01
	00 00		 mov	 rcx, QWORD PTR request$[rbp]
  000c8	48 8b 49 08	 mov	 rcx, QWORD PTR [rcx+8]
  000cc	48 8b 14 01	 mov	 rdx, QWORD PTR [rcx+rax]
  000d0	48 8b 4d 28	 mov	 rcx, QWORD PTR barrelNode$[rbp]
  000d4	e8 00 00 00 00	 call	 Barrel_GetChunk
  000d9	eb 64		 jmp	 SHORT $LN1@Barrel_Man
$LN5@Barrel_Man:

; 722  : 
; 723  : 	case tUSE:
; 724  : 		return Collection_Request(barrelNode);

  000db	48 8b 4d 28	 mov	 rcx, QWORD PTR barrelNode$[rbp]
  000df	e8 00 00 00 00	 call	 Collection_Request
  000e4	eb 59		 jmp	 SHORT $LN1@Barrel_Man
$LN6@Barrel_Man:

; 725  : 
; 726  : 	case tRELEASE:
; 727  : 		return Collection_Release(barrelNode);

  000e6	48 8b 4d 28	 mov	 rcx, QWORD PTR barrelNode$[rbp]
  000ea	e8 00 00 00 00	 call	 Collection_Release
  000ef	eb 4e		 jmp	 SHORT $LN1@Barrel_Man
$LN7@Barrel_Man:

; 728  : 
; 729  : 	case DELTA_SIZE:
; 730  : 		return Barrel_DeltaSize(request);

  000f1	48 8d 85 10 01
	00 00		 lea	 rax, QWORD PTR $T1[rbp]
  000f8	48 8b f8	 mov	 rdi, rax
  000fb	48 8b b5 80 01
	00 00		 mov	 rsi, QWORD PTR request$[rbp]
  00102	b9 10 00 00 00	 mov	 ecx, 16
  00107	f3 a4		 rep movsb
  00109	48 8d 8d 10 01
	00 00		 lea	 rcx, QWORD PTR $T1[rbp]
  00110	e8 00 00 00 00	 call	 Barrel_DeltaSize
  00115	eb 28		 jmp	 SHORT $LN1@Barrel_Man
$LN8@Barrel_Man:

; 731  : 
; 732  : 	case tRESIZE:
; 733  : 		return Barrel_Resize(request);

  00117	48 8d 85 40 01
	00 00		 lea	 rax, QWORD PTR $T2[rbp]
  0011e	48 8b f8	 mov	 rdi, rax
  00121	48 8b b5 80 01
	00 00		 mov	 rsi, QWORD PTR request$[rbp]
  00128	b9 10 00 00 00	 mov	 ecx, 16
  0012d	f3 a4		 rep movsb
  0012f	48 8d 8d 40 01
	00 00		 lea	 rcx, QWORD PTR $T2[rbp]
  00136	e8 00 00 00 00	 call	 Barrel_Resize
  0013b	eb 02		 jmp	 SHORT $LN1@Barrel_Man
$LN9@Barrel_Man:

; 734  : 
; 735  : 
; 736  : 	default:
; 737  : 		return false;

  0013d	33 c0		 xor	 eax, eax
$LN1@Barrel_Man:

; 738  : 	}
; 739  : }

  0013f	48 8d a5 60 01
	00 00		 lea	 rsp, QWORD PTR [rbp+352]
  00146	5f		 pop	 rdi
  00147	5e		 pop	 rsi
  00148	5d		 pop	 rbp
  00149	c3		 ret	 0
Barrel_Manage ENDP
_TEXT	ENDS
; Function compile flags: /Odtp /RTCsu /ZI
; File C:\Repos\BarrelTest\tBarrel.c
;	COMDAT Barrel_NextAvailableNodeIx
_TEXT	SEGMENT
next$ = 4
$S4$15 = 40
deltaSize$16 = 72
$S5$17 = 128
$S6$18 = 232
$S7$19 = 280
$S8$20 = 328
$S9$21 = 376
$S10$22 = 424
$S11$23 = 480
$S12$24 = 776
$S13$25 = 808
nextNode$26 = 840
$S14$27 = 872
$T28 = 1288
$T29 = 1344
__$ArrayPad$ = 1368
Barrel_NextAvailableNodeIx PROC				; COMDAT

; 671  : {

$LN6:
  00000	40 55		 push	 rbp
  00002	56		 push	 rsi
  00003	57		 push	 rdi
  00004	48 81 ec 80 05
	00 00		 sub	 rsp, 1408		; 00000580H
  0000b	48 8d 6c 24 20	 lea	 rbp, QWORD PTR [rsp+32]
  00010	48 8d 7c 24 20	 lea	 rdi, QWORD PTR [rsp+32]
  00015	b9 f8 00 00 00	 mov	 ecx, 248		; 000000f8H
  0001a	b8 cc cc cc cc	 mov	 eax, -858993460		; ccccccccH
  0001f	f3 ab		 rep stosd
  00021	48 8b 05 00 00
	00 00		 mov	 rax, QWORD PTR __security_cookie
  00028	48 33 c5	 xor	 rax, rbp
  0002b	48 89 85 58 05
	00 00		 mov	 QWORD PTR __$ArrayPad$[rbp], rax
  00032	48 8d 0d 00 00
	00 00		 lea	 rcx, OFFSET FLAT:__59E4AADC_tBarrel@c
  00039	e8 00 00 00 00	 call	 __CheckForDebuggerJustMyCode

; 672  : 
; 673  : 	int next = GlobalBarrelService._nextAvailable;

  0003e	8b 05 28 00 00
	00		 mov	 eax, DWORD PTR GlobalBarrelService+40
  00044	89 45 04	 mov	 DWORD PTR next$[rbp], eax

; 674  : 
; 675  : 	if (next < 0)

  00047	83 7d 04 00	 cmp	 DWORD PTR next$[rbp], 0
  0004b	0f 8d a6 01 00
	00		 jge	 $LN2@Barrel_Nex

; 676  : 	{
; 677  : 		PREENT("Getting Fresh Node...\n");

  00051	48 8d 55 28	 lea	 rdx, QWORD PTR $S4$15[rbp]
  00055	48 8d 0d 00 00
	00 00		 lea	 rcx, OFFSET FLAT:??_C@_0BH@ILDHJPOI@Getting?5Fresh?5Node?4?4?4?6@
  0005c	e8 00 00 00 00	 call	 Preent

; 678  : 		next = GlobalBarrelService.Omegus._collection._count;

  00061	8b 05 10 00 00
	00		 mov	 eax, DWORD PTR GlobalBarrelService+16
  00067	89 45 04	 mov	 DWORD PTR next$[rbp], eax

; 679  : 		REQUEST deltaSize = Request(MANAGE, P_(tVARIANT, DELTA_SIZE), P_(tTRG, &(GlobalBarrelService.Omegus)), P_(tSIZE, 1), P_(tCOUNT, 1));

  0006a	48 8d 85 e0 01
	00 00		 lea	 rax, QWORD PTR $S11$23[rbp]
  00071	48 8b f8	 mov	 rdi, rax
  00074	33 c0		 xor	 eax, eax
  00076	b9 10 01 00 00	 mov	 ecx, 272		; 00000110H
  0007b	f3 aa		 rep stosb
  0007d	c7 85 e8 00 00
	00 00 00 00 00	 mov	 DWORD PTR $S6$18[rbp], 0
  00087	48 c7 85 f0 00
	00 00 12 00 00
	00		 mov	 QWORD PTR $S6$18[rbp+8], 18
  00092	48 8d 85 80 00
	00 00		 lea	 rax, QWORD PTR $S5$17[rbp]
  00099	48 8d 8d e8 00
	00 00		 lea	 rcx, QWORD PTR $S6$18[rbp]
  000a0	48 8b f8	 mov	 rdi, rax
  000a3	48 8b f1	 mov	 rsi, rcx
  000a6	b9 10 00 00 00	 mov	 ecx, 16
  000ab	f3 a4		 rep movsb
  000ad	c7 85 18 01 00
	00 01 00 00 00	 mov	 DWORD PTR $S7$19[rbp], 1
  000b7	48 8d 05 08 00
	00 00		 lea	 rax, OFFSET FLAT:GlobalBarrelService+8
  000be	48 89 85 20 01
	00 00		 mov	 QWORD PTR $S7$19[rbp+8], rax
  000c5	48 8d 85 90 00
	00 00		 lea	 rax, QWORD PTR $S5$17[rbp+16]
  000cc	48 8d 8d 18 01
	00 00		 lea	 rcx, QWORD PTR $S7$19[rbp]
  000d3	48 8b f8	 mov	 rdi, rax
  000d6	48 8b f1	 mov	 rsi, rcx
  000d9	b9 10 00 00 00	 mov	 ecx, 16
  000de	f3 a4		 rep movsb
  000e0	c7 85 48 01 00
	00 06 00 00 00	 mov	 DWORD PTR $S8$20[rbp], 6
  000ea	48 c7 85 50 01
	00 00 01 00 00
	00		 mov	 QWORD PTR $S8$20[rbp+8], 1
  000f5	48 8d 85 a0 00
	00 00		 lea	 rax, QWORD PTR $S5$17[rbp+32]
  000fc	48 8d 8d 48 01
	00 00		 lea	 rcx, QWORD PTR $S8$20[rbp]
  00103	48 8b f8	 mov	 rdi, rax
  00106	48 8b f1	 mov	 rsi, rcx
  00109	b9 10 00 00 00	 mov	 ecx, 16
  0010e	f3 a4		 rep movsb
  00110	c7 85 78 01 00
	00 07 00 00 00	 mov	 DWORD PTR $S9$21[rbp], 7
  0011a	48 c7 85 80 01
	00 00 01 00 00
	00		 mov	 QWORD PTR $S9$21[rbp+8], 1
  00125	48 8d 85 b0 00
	00 00		 lea	 rax, QWORD PTR $S5$17[rbp+48]
  0012c	48 8d 8d 78 01
	00 00		 lea	 rcx, QWORD PTR $S9$21[rbp]
  00133	48 8b f8	 mov	 rdi, rax
  00136	48 8b f1	 mov	 rsi, rcx
  00139	b9 10 00 00 00	 mov	 ecx, 16
  0013e	f3 a4		 rep movsb
  00140	c7 85 a8 01 00
	00 fe ff ff ff	 mov	 DWORD PTR $S10$22[rbp], -2
  0014a	48 c7 85 b0 01
	00 00 00 00 00
	00		 mov	 QWORD PTR $S10$22[rbp+8], 0
  00155	48 8d 85 c0 00
	00 00		 lea	 rax, QWORD PTR $S5$17[rbp+64]
  0015c	48 8d 8d a8 01
	00 00		 lea	 rcx, QWORD PTR $S10$22[rbp]
  00163	48 8b f8	 mov	 rdi, rax
  00166	48 8b f1	 mov	 rsi, rcx
  00169	b9 10 00 00 00	 mov	 ecx, 16
  0016e	f3 a4		 rep movsb
  00170	4c 8d 8d e0 01
	00 00		 lea	 r9, QWORD PTR $S11$23[rbp]
  00177	4c 8d 85 80 00
	00 00		 lea	 r8, QWORD PTR $S5$17[rbp]
  0017e	ba 08 00 00 00	 mov	 edx, 8
  00183	48 8d 8d 08 05
	00 00		 lea	 rcx, QWORD PTR $T28[rbp]
  0018a	e8 00 00 00 00	 call	 CreateRequest
  0018f	48 8d 4d 48	 lea	 rcx, QWORD PTR deltaSize$16[rbp]
  00193	48 8b f9	 mov	 rdi, rcx
  00196	48 8b f0	 mov	 rsi, rax
  00199	b9 10 00 00 00	 mov	 ecx, 16
  0019e	f3 a4		 rep movsb

; 680  : 		if (!Barrel_DeltaSize(deltaSize))

  001a0	48 8d 85 40 05
	00 00		 lea	 rax, QWORD PTR $T29[rbp]
  001a7	48 8d 4d 48	 lea	 rcx, QWORD PTR deltaSize$16[rbp]
  001ab	48 8b f8	 mov	 rdi, rax
  001ae	48 8b f1	 mov	 rsi, rcx
  001b1	b9 10 00 00 00	 mov	 ecx, 16
  001b6	f3 a4		 rep movsb
  001b8	48 8d 8d 40 05
	00 00		 lea	 rcx, QWORD PTR $T29[rbp]
  001bf	e8 00 00 00 00	 call	 Barrel_DeltaSize
  001c4	85 c0		 test	 eax, eax
  001c6	75 1a		 jne	 SHORT $LN4@Barrel_Nex

; 681  : 		{
; 682  : 			PREENT("Omegus Vector resize failed!\n");

  001c8	48 8d 95 08 03
	00 00		 lea	 rdx, QWORD PTR $S12$24[rbp]
  001cf	48 8d 0d 00 00
	00 00		 lea	 rcx, OFFSET FLAT:??_C@_0BO@CFBAAFAH@Omegus?5Vector?5resize?5failed?$CB?6@
  001d6	e8 00 00 00 00	 call	 Preent

; 683  : 			return NONE;

  001db	b8 fe ff ff ff	 mov	 eax, -2
  001e0	eb 4a		 jmp	 SHORT $LN1@Barrel_Nex
$LN4@Barrel_Nex:

; 684  : 		}
; 685  : 		PREENT("Fresh Node!\n");

  001e2	48 8d 95 28 03
	00 00		 lea	 rdx, QWORD PTR $S13$25[rbp]
  001e9	48 8d 0d 00 00
	00 00		 lea	 rcx, OFFSET FLAT:??_C@_0N@EJBOAMCB@Fresh?5Node?$CB?6@
  001f0	e8 00 00 00 00	 call	 Preent

; 686  : 	}

  001f5	eb 32		 jmp	 SHORT $LN3@Barrel_Nex
$LN2@Barrel_Nex:

; 687  : 	else
; 688  : 	{
; 689  : 		BarrelNode* nextNode = Barrel_GetNode(next);

  001f7	8b 4d 04	 mov	 ecx, DWORD PTR next$[rbp]
  001fa	e8 00 00 00 00	 call	 Barrel_GetNode
  001ff	48 89 85 48 03
	00 00		 mov	 QWORD PTR nextNode$26[rbp], rax

; 690  : 		GlobalBarrelService._nextAvailable = nextNode->_nextNode;

  00206	48 8b 85 48 03
	00 00		 mov	 rax, QWORD PTR nextNode$26[rbp]
  0020d	8b 40 1c	 mov	 eax, DWORD PTR [rax+28]
  00210	89 05 28 00 00
	00		 mov	 DWORD PTR GlobalBarrelService+40, eax

; 691  : 		PREENT("Recycled Node!\n");

  00216	48 8d 95 68 03
	00 00		 lea	 rdx, QWORD PTR $S14$27[rbp]
  0021d	48 8d 0d 00 00
	00 00		 lea	 rcx, OFFSET FLAT:??_C@_0BA@GEFABINM@Recycled?5Node?$CB?6@
  00224	e8 00 00 00 00	 call	 Preent
$LN3@Barrel_Nex:

; 692  : 	}
; 693  : 
; 694  : 	return next;

  00229	8b 45 04	 mov	 eax, DWORD PTR next$[rbp]
$LN1@Barrel_Nex:

; 695  : }

  0022c	48 8b f8	 mov	 rdi, rax
  0022f	48 8d 4d e0	 lea	 rcx, QWORD PTR [rbp-32]
  00233	48 8d 15 00 00
	00 00		 lea	 rdx, OFFSET FLAT:Barrel_NextAvailableNodeIx$rtcFrameData
  0023a	e8 00 00 00 00	 call	 _RTC_CheckStackVars
  0023f	48 8b c7	 mov	 rax, rdi
  00242	48 8b 8d 58 05
	00 00		 mov	 rcx, QWORD PTR __$ArrayPad$[rbp]
  00249	48 33 cd	 xor	 rcx, rbp
  0024c	e8 00 00 00 00	 call	 __security_check_cookie
  00251	48 8d a5 60 05
	00 00		 lea	 rsp, QWORD PTR [rbp+1376]
  00258	5f		 pop	 rdi
  00259	5e		 pop	 rsi
  0025a	5d		 pop	 rbp
  0025b	c3		 ret	 0
Barrel_NextAvailableNodeIx ENDP
_TEXT	ENDS
; Function compile flags: /Odtp /RTCsu /ZI
; File C:\Repos\BarrelTest\tBarrel.c
;	COMDAT Barrel_Resize
_TEXT	SEGMENT
node$ = 8
$T1 = 240
request$ = 304
Barrel_Resize PROC					; COMDAT

; 664  : bool Barrel_Resize(REQUEST request) {

$LN3:
  00000	48 89 4c 24 08	 mov	 QWORD PTR [rsp+8], rcx
  00005	55		 push	 rbp
  00006	56		 push	 rsi
  00007	57		 push	 rdi
  00008	48 81 ec 30 01
	00 00		 sub	 rsp, 304		; 00000130H
  0000f	48 8d 6c 24 20	 lea	 rbp, QWORD PTR [rsp+32]
  00014	48 8d 0d 00 00
	00 00		 lea	 rcx, OFFSET FLAT:__59E4AADC_tBarrel@c
  0001b	e8 00 00 00 00	 call	 __CheckForDebuggerJustMyCode

; 665  : 	BarrelNode* node = request._params[tTRG];

  00020	b8 08 00 00 00	 mov	 eax, 8
  00025	48 6b c0 01	 imul	 rax, rax, 1
  00029	48 8b 8d 30 01
	00 00		 mov	 rcx, QWORD PTR request$[rbp]
  00030	48 8b 49 08	 mov	 rcx, QWORD PTR [rcx+8]
  00034	48 8b 04 08	 mov	 rax, QWORD PTR [rax+rcx]
  00038	48 89 45 08	 mov	 QWORD PTR node$[rbp], rax

; 666  : 	((uint)request._params[tCOUNT]) -= node->_collection._count;

  0003c	b8 08 00 00 00	 mov	 eax, 8
  00041	48 6b c0 07	 imul	 rax, rax, 7
  00045	48 8b 8d 30 01
	00 00		 mov	 rcx, QWORD PTR request$[rbp]
  0004c	48 8b 49 08	 mov	 rcx, QWORD PTR [rcx+8]
  00050	48 8b 55 08	 mov	 rdx, QWORD PTR node$[rbp]
  00054	8b 52 08	 mov	 edx, DWORD PTR [rdx+8]
  00057	8b 04 01	 mov	 eax, DWORD PTR [rcx+rax]
  0005a	2b c2		 sub	 eax, edx
  0005c	b9 08 00 00 00	 mov	 ecx, 8
  00061	48 6b c9 07	 imul	 rcx, rcx, 7
  00065	48 8b 95 30 01
	00 00		 mov	 rdx, QWORD PTR request$[rbp]
  0006c	48 8b 52 08	 mov	 rdx, QWORD PTR [rdx+8]
  00070	89 04 11	 mov	 DWORD PTR [rcx+rdx], eax

; 667  : 	return Barrel_DeltaSize(request);

  00073	48 8d 85 f0 00
	00 00		 lea	 rax, QWORD PTR $T1[rbp]
  0007a	48 8b f8	 mov	 rdi, rax
  0007d	48 8b b5 30 01
	00 00		 mov	 rsi, QWORD PTR request$[rbp]
  00084	b9 10 00 00 00	 mov	 ecx, 16
  00089	f3 a4		 rep movsb
  0008b	48 8d 8d f0 00
	00 00		 lea	 rcx, QWORD PTR $T1[rbp]
  00092	e8 00 00 00 00	 call	 Barrel_DeltaSize

; 668  : }

  00097	48 8d a5 10 01
	00 00		 lea	 rsp, QWORD PTR [rbp+272]
  0009e	5f		 pop	 rdi
  0009f	5e		 pop	 rsi
  000a0	5d		 pop	 rbp
  000a1	c3		 ret	 0
Barrel_Resize ENDP
_TEXT	ENDS
; Function compile flags: /Odtp /RTCsu /ZI
; File C:\Repos\BarrelTest\tBarrel.c
;	COMDAT Barrel_DeltaSize
_TEXT	SEGMENT
unitDelta$ = 4
$S1$ = 40
$S2$ = 100
$S3$ = 136
node$ = 184
unitSize$ = 216
deltaMag$ = 244
remainingCapacity$ = 280
deltaSize$ = 312
barrelDelta$ = 340
tv92 = 548
tv78 = 548
tv134 = 552
tv133 = 560
__$ArrayPad$ = 568
request$ = 608
Barrel_DeltaSize PROC					; COMDAT

; 613  : {

$LN17:
  00000	48 89 4c 24 08	 mov	 QWORD PTR [rsp+8], rcx
  00005	55		 push	 rbp
  00006	56		 push	 rsi
  00007	57		 push	 rdi
  00008	48 81 ec 60 02
	00 00		 sub	 rsp, 608		; 00000260H
  0000f	48 8d 6c 24 20	 lea	 rbp, QWORD PTR [rsp+32]
  00014	48 8d 7c 24 20	 lea	 rdi, QWORD PTR [rsp+32]
  00019	b9 60 00 00 00	 mov	 ecx, 96			; 00000060H
  0001e	b8 cc cc cc cc	 mov	 eax, -858993460		; ccccccccH
  00023	f3 ab		 rep stosd
  00025	48 8b 8c 24 88
	02 00 00	 mov	 rcx, QWORD PTR [rsp+648]
  0002d	48 8b 05 00 00
	00 00		 mov	 rax, QWORD PTR __security_cookie
  00034	48 33 c5	 xor	 rax, rbp
  00037	48 89 85 38 02
	00 00		 mov	 QWORD PTR __$ArrayPad$[rbp], rax
  0003e	48 8d 0d 00 00
	00 00		 lea	 rcx, OFFSET FLAT:__59E4AADC_tBarrel@c
  00045	e8 00 00 00 00	 call	 __CheckForDebuggerJustMyCode

; 614  : 	int unitDelta = (int)(request._params[tCOUNT]);

  0004a	b8 08 00 00 00	 mov	 eax, 8
  0004f	48 6b c0 07	 imul	 rax, rax, 7
  00053	48 8b 8d 60 02
	00 00		 mov	 rcx, QWORD PTR request$[rbp]
  0005a	48 8b 49 08	 mov	 rcx, QWORD PTR [rcx+8]
  0005e	8b 04 08	 mov	 eax, DWORD PTR [rax+rcx]
  00061	89 45 04	 mov	 DWORD PTR unitDelta$[rbp], eax

; 615  : 
; 616  : 	PREENT_SAFE("DeltaSize Request: %\n", fmt_i(unitDelta));

  00064	c7 45 28 09 00
	00 00		 mov	 DWORD PTR $S1$[rbp], 9
  0006b	8b 45 04	 mov	 eax, DWORD PTR unitDelta$[rbp]
  0006e	89 45 64	 mov	 DWORD PTR $S2$[rbp], eax
  00071	48 8d 45 64	 lea	 rax, QWORD PTR $S2$[rbp]
  00075	48 89 45 30	 mov	 QWORD PTR $S1$[rbp+8], rax
  00079	c7 85 88 00 00
	00 fe ff ff ff	 mov	 DWORD PTR $S3$[rbp], -2
  00083	48 c7 85 90 00
	00 00 00 00 00
	00		 mov	 QWORD PTR $S3$[rbp+8], 0
  0008e	48 8d 45 38	 lea	 rax, QWORD PTR $S1$[rbp+16]
  00092	48 8d 8d 88 00
	00 00		 lea	 rcx, QWORD PTR $S3$[rbp]
  00099	48 8b f8	 mov	 rdi, rax
  0009c	48 8b f1	 mov	 rsi, rcx
  0009f	b9 10 00 00 00	 mov	 ecx, 16
  000a4	f3 a4		 rep movsb
  000a6	48 8d 55 28	 lea	 rdx, QWORD PTR $S1$[rbp]
  000aa	48 8d 0d 00 00
	00 00		 lea	 rcx, OFFSET FLAT:??_C@_0BG@GFFEPJOL@DeltaSize?5Request?3?5?$CF?6@
  000b1	e8 00 00 00 00	 call	 Preent

; 617  : 	//int countDelta = (int)(request._params[tCOUNT]);
; 618  : 	BarrelNode* node = request._params[tTRG];

  000b6	b8 08 00 00 00	 mov	 eax, 8
  000bb	48 6b c0 01	 imul	 rax, rax, 1
  000bf	48 8b 8d 60 02
	00 00		 mov	 rcx, QWORD PTR request$[rbp]
  000c6	48 8b 49 08	 mov	 rcx, QWORD PTR [rcx+8]
  000ca	48 8b 04 08	 mov	 rax, QWORD PTR [rax+rcx]
  000ce	48 89 85 b8 00
	00 00		 mov	 QWORD PTR node$[rbp], rax

; 619  : 	size_t unitSize = node->_collection._extensions->_type->_size;

  000d5	48 8b 85 b8 00
	00 00		 mov	 rax, QWORD PTR node$[rbp]
  000dc	48 8b 00	 mov	 rax, QWORD PTR [rax]
  000df	48 8b 00	 mov	 rax, QWORD PTR [rax]
  000e2	48 8b 40 08	 mov	 rax, QWORD PTR [rax+8]
  000e6	48 89 85 d8 00
	00 00		 mov	 QWORD PTR unitSize$[rbp], rax

; 620  : 	
; 621  : 	// no action needed
; 622  : 	if (unitDelta == 0)

  000ed	83 7d 04 00	 cmp	 DWORD PTR unitDelta$[rbp], 0
  000f1	75 0a		 jne	 SHORT $LN2@Barrel_Del

; 623  : 		return true;

  000f3	b8 01 00 00 00	 mov	 eax, 1
  000f8	e9 ca 01 00 00	 jmp	 $LN1@Barrel_Del
$LN2@Barrel_Del:

; 624  : 
; 625  : 	int deltaMag = unitDelta < 0 ? -unitDelta : unitDelta;

  000fd	83 7d 04 00	 cmp	 DWORD PTR unitDelta$[rbp], 0
  00101	7d 0d		 jge	 SHORT $LN9@Barrel_Del
  00103	8b 45 04	 mov	 eax, DWORD PTR unitDelta$[rbp]
  00106	f7 d8		 neg	 eax
  00108	89 85 24 02 00
	00		 mov	 DWORD PTR tv78[rbp], eax
  0010e	eb 09		 jmp	 SHORT $LN10@Barrel_Del
$LN9@Barrel_Del:
  00110	8b 45 04	 mov	 eax, DWORD PTR unitDelta$[rbp]
  00113	89 85 24 02 00
	00		 mov	 DWORD PTR tv78[rbp], eax
$LN10@Barrel_Del:
  00119	8b 85 24 02 00
	00		 mov	 eax, DWORD PTR tv78[rbp]
  0011f	89 85 f4 00 00
	00		 mov	 DWORD PTR deltaMag$[rbp], eax

; 626  : 
; 627  : 	size_t remainingCapacity = Barrel_RemainingSizeCap(node);

  00125	48 8b 8d b8 00
	00 00		 mov	 rcx, QWORD PTR node$[rbp]
  0012c	e8 00 00 00 00	 call	 Barrel_RemainingSizeCap
  00131	48 89 85 18 01
	00 00		 mov	 QWORD PTR remainingCapacity$[rbp], rax

; 628  : 	size_t deltaSize = deltaMag * node->_collection._extensions->_type->_size;

  00138	48 63 85 f4 00
	00 00		 movsxd	 rax, DWORD PTR deltaMag$[rbp]
  0013f	48 8b 8d b8 00
	00 00		 mov	 rcx, QWORD PTR node$[rbp]
  00146	48 8b 09	 mov	 rcx, QWORD PTR [rcx]
  00149	48 8b 09	 mov	 rcx, QWORD PTR [rcx]
  0014c	48 0f af 41 08	 imul	 rax, QWORD PTR [rcx+8]
  00151	48 89 85 38 01
	00 00		 mov	 QWORD PTR deltaSize$[rbp], rax

; 629  : 
; 630  : 	// determine initial block 'delta', rounding up if positive, to cover any trailing elements
; 631  : 	int barrelDelta =

  00158	83 7d 04 00	 cmp	 DWORD PTR unitDelta$[rbp], 0
  0015c	7e 6d		 jle	 SHORT $LN15@Barrel_Del
  0015e	48 8b 85 18 01
	00 00		 mov	 rax, QWORD PTR remainingCapacity$[rbp]
  00165	48 8b 8d 38 01
	00 00		 mov	 rcx, QWORD PTR deltaSize$[rbp]
  0016c	48 2b c8	 sub	 rcx, rax
  0016f	48 8b c1	 mov	 rax, rcx
  00172	33 d2		 xor	 edx, edx
  00174	b9 20 00 00 00	 mov	 ecx, 32			; 00000020H
  00179	48 f7 f1	 div	 rcx
  0017c	48 8b c2	 mov	 rax, rdx
  0017f	48 85 c0	 test	 rax, rax
  00182	76 0c		 jbe	 SHORT $LN11@Barrel_Del
  00184	c7 85 24 02 00
	00 01 00 00 00	 mov	 DWORD PTR tv92[rbp], 1
  0018e	eb 0a		 jmp	 SHORT $LN12@Barrel_Del
$LN11@Barrel_Del:
  00190	c7 85 24 02 00
	00 00 00 00 00	 mov	 DWORD PTR tv92[rbp], 0
$LN12@Barrel_Del:
  0019a	48 8b 85 18 01
	00 00		 mov	 rax, QWORD PTR remainingCapacity$[rbp]
  001a1	48 8b 8d 38 01
	00 00		 mov	 rcx, QWORD PTR deltaSize$[rbp]
  001a8	48 2b c8	 sub	 rcx, rax
  001ab	48 8b c1	 mov	 rax, rcx
  001ae	33 d2		 xor	 edx, edx
  001b0	b9 20 00 00 00	 mov	 ecx, 32			; 00000020H
  001b5	48 f7 f1	 div	 rcx
  001b8	48 63 8d 24 02
	00 00		 movsxd	 rcx, DWORD PTR tv92[rbp]
  001bf	48 03 c1	 add	 rax, rcx
  001c2	48 89 85 28 02
	00 00		 mov	 QWORD PTR tv134[rbp], rax
  001c9	eb 4a		 jmp	 SHORT $LN16@Barrel_Del
$LN15@Barrel_Del:
  001cb	83 7d 04 00	 cmp	 DWORD PTR unitDelta$[rbp], 0
  001cf	7d 2b		 jge	 SHORT $LN13@Barrel_Del
  001d1	48 8b 85 38 01
	00 00		 mov	 rax, QWORD PTR deltaSize$[rbp]
  001d8	48 8b 8d 18 01
	00 00		 mov	 rcx, QWORD PTR remainingCapacity$[rbp]
  001df	48 2b c8	 sub	 rcx, rax
  001e2	48 8b c1	 mov	 rax, rcx
  001e5	f7 d8		 neg	 eax
  001e7	48 98		 cdqe
  001e9	33 d2		 xor	 edx, edx
  001eb	b9 20 00 00 00	 mov	 ecx, 32			; 00000020H
  001f0	48 f7 f1	 div	 rcx
  001f3	48 89 85 30 02
	00 00		 mov	 QWORD PTR tv133[rbp], rax
  001fa	eb 0b		 jmp	 SHORT $LN14@Barrel_Del
$LN13@Barrel_Del:
  001fc	48 c7 85 30 02
	00 00 00 00 00
	00		 mov	 QWORD PTR tv133[rbp], 0
$LN14@Barrel_Del:
  00207	48 8b 85 30 02
	00 00		 mov	 rax, QWORD PTR tv133[rbp]
  0020e	48 89 85 28 02
	00 00		 mov	 QWORD PTR tv134[rbp], rax
$LN16@Barrel_Del:
  00215	8b 85 28 02 00
	00		 mov	 eax, DWORD PTR tv134[rbp]
  0021b	89 85 54 01 00
	00		 mov	 DWORD PTR barrelDelta$[rbp], eax

; 632  : 		unitDelta > 0 ? ((deltaSize - remainingCapacity) / sizeof(Barrel)) + ((deltaSize - remainingCapacity) % sizeof(Barrel) > 0 ? 1 : 0) :
; 633  : 		unitDelta < 0 ? (-(int)(remainingCapacity - deltaSize) / sizeof(Barrel)) : 0;
; 634  : 
; 635  : 	// no action needed
; 636  : 	if (barrelDelta == 0)

  00221	83 bd 54 01 00
	00 00		 cmp	 DWORD PTR barrelDelta$[rbp], 0
  00228	75 0a		 jne	 SHORT $LN3@Barrel_Del

; 637  : 		return true;

  0022a	b8 01 00 00 00	 mov	 eax, 1
  0022f	e9 93 00 00 00	 jmp	 $LN1@Barrel_Del
$LN3@Barrel_Del:

; 638  : 
; 639  : 	// shrink first
; 640  : 	if (barrelDelta < 0)

  00234	83 bd 54 01 00
	00 00		 cmp	 DWORD PTR barrelDelta$[rbp], 0
  0023b	7d 12		 jge	 SHORT $LN4@Barrel_Del

; 641  : 		Barrel_Shrink(node, barrelDelta);

  0023d	8b 95 54 01 00
	00		 mov	 edx, DWORD PTR barrelDelta$[rbp]
  00243	48 8b 8d b8 00
	00 00		 mov	 rcx, QWORD PTR node$[rbp]
  0024a	e8 00 00 00 00	 call	 Barrel_Shrink
$LN4@Barrel_Del:

; 642  : 
; 643  : 	// roll necessary Barrels
; 644  : 	if (node->_nextNode > NONE && !Barrel_Roll(Barrel_GetNode(node->_nextNode), barrelDelta))

  0024f	48 8b 85 b8 00
	00 00		 mov	 rax, QWORD PTR node$[rbp]
  00256	83 78 1c fe	 cmp	 DWORD PTR [rax+28], -2
  0025a	7e 25		 jle	 SHORT $LN5@Barrel_Del
  0025c	48 8b 85 b8 00
	00 00		 mov	 rax, QWORD PTR node$[rbp]
  00263	8b 48 1c	 mov	 ecx, DWORD PTR [rax+28]
  00266	e8 00 00 00 00	 call	 Barrel_GetNode
  0026b	8b 95 54 01 00
	00		 mov	 edx, DWORD PTR barrelDelta$[rbp]
  00271	48 8b c8	 mov	 rcx, rax
  00274	e8 00 00 00 00	 call	 Barrel_Roll
  00279	85 c0		 test	 eax, eax
  0027b	75 04		 jne	 SHORT $LN5@Barrel_Del

; 645  : 		return false;

  0027d	33 c0		 xor	 eax, eax
  0027f	eb 46		 jmp	 SHORT $LN1@Barrel_Del
$LN5@Barrel_Del:

; 646  : 
; 647  : 	// grow after
; 648  : 	if (barrelDelta > 0) {

  00281	83 bd 54 01 00
	00 00		 cmp	 DWORD PTR barrelDelta$[rbp], 0
  00288	7e 38		 jle	 SHORT $LN6@Barrel_Del

; 649  : 		if (node->_nextNode <= NONE && Heap_Remaining() < barrelDelta * sizeof(Barrel))

  0028a	48 8b 85 b8 00
	00 00		 mov	 rax, QWORD PTR node$[rbp]
  00291	83 78 1c fe	 cmp	 DWORD PTR [rax+28], -2
  00295	7f 19		 jg	 SHORT $LN7@Barrel_Del
  00297	e8 00 00 00 00	 call	 Heap_Remaining
  0029c	48 63 8d 54 01
	00 00		 movsxd	 rcx, DWORD PTR barrelDelta$[rbp]
  002a3	48 6b c9 20	 imul	 rcx, rcx, 32		; 00000020H
  002a7	48 3b c1	 cmp	 rax, rcx
  002aa	73 04		 jae	 SHORT $LN7@Barrel_Del

; 650  : 			return false;

  002ac	33 c0		 xor	 eax, eax
  002ae	eb 17		 jmp	 SHORT $LN1@Barrel_Del
$LN7@Barrel_Del:

; 651  : 
; 652  : 		Barrel_Grow(node, barrelDelta);

  002b0	8b 95 54 01 00
	00		 mov	 edx, DWORD PTR barrelDelta$[rbp]
  002b6	48 8b 8d b8 00
	00 00		 mov	 rcx, QWORD PTR node$[rbp]
  002bd	e8 00 00 00 00	 call	 Barrel_Grow
$LN6@Barrel_Del:

; 653  : 	}
; 654  : 
; 655  : 	return true;

  002c2	b8 01 00 00 00	 mov	 eax, 1
$LN1@Barrel_Del:

; 656  : }

  002c7	48 8b f8	 mov	 rdi, rax
  002ca	48 8d 4d e0	 lea	 rcx, QWORD PTR [rbp-32]
  002ce	48 8d 15 00 00
	00 00		 lea	 rdx, OFFSET FLAT:Barrel_DeltaSize$rtcFrameData
  002d5	e8 00 00 00 00	 call	 _RTC_CheckStackVars
  002da	48 8b c7	 mov	 rax, rdi
  002dd	48 8b 8d 38 02
	00 00		 mov	 rcx, QWORD PTR __$ArrayPad$[rbp]
  002e4	48 33 cd	 xor	 rcx, rbp
  002e7	e8 00 00 00 00	 call	 __security_check_cookie
  002ec	48 8d a5 40 02
	00 00		 lea	 rsp, QWORD PTR [rbp+576]
  002f3	5f		 pop	 rdi
  002f4	5e		 pop	 rsi
  002f5	5d		 pop	 rbp
  002f6	c3		 ret	 0
Barrel_DeltaSize ENDP
_TEXT	ENDS
; Function compile flags: /Odtp /RTCsu /ZI
; File C:\Repos\BarrelTest\tBarrel.c
;	COMDAT Barrel_Roll
_TEXT	SEGMENT
node$ = 224
request$ = 232
Barrel_Roll PROC					; COMDAT

; 587  : bool Barrel_Roll(BarrelNode* node, int request) {

$LN11:
  00000	89 54 24 10	 mov	 DWORD PTR [rsp+16], edx
  00004	48 89 4c 24 08	 mov	 QWORD PTR [rsp+8], rcx
  00009	55		 push	 rbp
  0000a	57		 push	 rdi
  0000b	48 81 ec e8 00
	00 00		 sub	 rsp, 232		; 000000e8H
  00012	48 8d 6c 24 20	 lea	 rbp, QWORD PTR [rsp+32]
  00017	48 8d 0d 00 00
	00 00		 lea	 rcx, OFFSET FLAT:__59E4AADC_tBarrel@c
  0001e	e8 00 00 00 00	 call	 __CheckForDebuggerJustMyCode

; 588  : 
; 589  : 	if (request == 0) // Empty, return good anyway

  00023	83 bd e8 00 00
	00 00		 cmp	 DWORD PTR request$[rbp], 0
  0002a	75 0a		 jne	 SHORT $LN2@Barrel_Rol

; 590  : 		return true;

  0002c	b8 01 00 00 00	 mov	 eax, 1
  00031	e9 b4 00 00 00	 jmp	 $LN1@Barrel_Rol
$LN2@Barrel_Rol:

; 591  : 
; 592  : 	if (!Collection_Request(node)) // Failed to reserve collection

  00036	48 8b 8d e0 00
	00 00		 mov	 rcx, QWORD PTR node$[rbp]
  0003d	e8 00 00 00 00	 call	 Collection_Request
  00042	85 c0		 test	 eax, eax
  00044	75 07		 jne	 SHORT $LN3@Barrel_Rol

; 593  : 		return false;

  00046	33 c0		 xor	 eax, eax
  00048	e9 9d 00 00 00	 jmp	 $LN1@Barrel_Rol
$LN3@Barrel_Rol:

; 594  : 
; 595  : 	if (request < 0) // Shrink collection before anything

  0004d	83 bd e8 00 00
	00 00		 cmp	 DWORD PTR request$[rbp], 0
  00054	7d 12		 jge	 SHORT $LN4@Barrel_Rol

; 596  : 		Barrel_RollBack(node, request);

  00056	8b 95 e8 00 00
	00		 mov	 edx, DWORD PTR request$[rbp]
  0005c	48 8b 8d e0 00
	00 00		 mov	 rcx, QWORD PTR node$[rbp]
  00063	e8 00 00 00 00	 call	 Barrel_RollBack
$LN4@Barrel_Rol:

; 597  : 	
; 598  : 	// Send action to next physical node. Return false on recursion chain failure.
; 599  : 	if (node->_nextNode > -1) {

  00068	48 8b 85 e0 00
	00 00		 mov	 rax, QWORD PTR node$[rbp]
  0006f	83 78 1c ff	 cmp	 DWORD PTR [rax+28], -1
  00073	7e 27		 jle	 SHORT $LN5@Barrel_Rol

; 600  : 		if (!Barrel_Roll(Barrel_GetNode(node->_nextNode), request))

  00075	48 8b 85 e0 00
	00 00		 mov	 rax, QWORD PTR node$[rbp]
  0007c	8b 48 1c	 mov	 ecx, DWORD PTR [rax+28]
  0007f	e8 00 00 00 00	 call	 Barrel_GetNode
  00084	8b 95 e8 00 00
	00		 mov	 edx, DWORD PTR request$[rbp]
  0008a	48 8b c8	 mov	 rcx, rax
  0008d	e8 00 00 00 00	 call	 Barrel_Roll
  00092	85 c0		 test	 eax, eax
  00094	75 04		 jne	 SHORT $LN7@Barrel_Rol

; 601  : 			return false;

  00096	33 c0		 xor	 eax, eax
  00098	eb 50		 jmp	 SHORT $LN1@Barrel_Rol
$LN7@Barrel_Rol:

; 602  : 	}

  0009a	eb 22		 jmp	 SHORT $LN6@Barrel_Rol
$LN5@Barrel_Rol:

; 603  : 	else if (request > 0 && Heap_Remaining() < request * sizeof(Barrel)) // Heap has no available space for last node

  0009c	83 bd e8 00 00
	00 00		 cmp	 DWORD PTR request$[rbp], 0
  000a3	7e 19		 jle	 SHORT $LN8@Barrel_Rol
  000a5	e8 00 00 00 00	 call	 Heap_Remaining
  000aa	48 63 8d e8 00
	00 00		 movsxd	 rcx, DWORD PTR request$[rbp]
  000b1	48 6b c9 20	 imul	 rcx, rcx, 32		; 00000020H
  000b5	48 3b c1	 cmp	 rax, rcx
  000b8	73 04		 jae	 SHORT $LN8@Barrel_Rol

; 604  : 		return false;

  000ba	33 c0		 xor	 eax, eax
  000bc	eb 2c		 jmp	 SHORT $LN1@Barrel_Rol
$LN8@Barrel_Rol:
$LN6@Barrel_Rol:

; 605  : 
; 606  : 	if (request > 0) // Grow the collection last

  000be	83 bd e8 00 00
	00 00		 cmp	 DWORD PTR request$[rbp], 0
  000c5	7e 12		 jle	 SHORT $LN9@Barrel_Rol

; 607  : 		Barrel_RollForward(node, request);

  000c7	8b 95 e8 00 00
	00		 mov	 edx, DWORD PTR request$[rbp]
  000cd	48 8b 8d e0 00
	00 00		 mov	 rcx, QWORD PTR node$[rbp]
  000d4	e8 00 00 00 00	 call	 Barrel_RollForward
$LN9@Barrel_Rol:

; 608  : 
; 609  : 	Collection_Release(node); // Release collection

  000d9	48 8b 8d e0 00
	00 00		 mov	 rcx, QWORD PTR node$[rbp]
  000e0	e8 00 00 00 00	 call	 Collection_Release

; 610  : 	return true;

  000e5	b8 01 00 00 00	 mov	 eax, 1
$LN1@Barrel_Rol:

; 611  : }

  000ea	48 8d a5 c8 00
	00 00		 lea	 rsp, QWORD PTR [rbp+200]
  000f1	5f		 pop	 rdi
  000f2	5d		 pop	 rbp
  000f3	c3		 ret	 0
Barrel_Roll ENDP
_TEXT	ENDS
; Function compile flags: /Odtp /RTCsu /ZI
; File C:\Repos\BarrelTest\tBarrel.c
;	COMDAT Barrel_maximumAvailableBarrels
_TEXT	SEGMENT
availableBarrels$ = 4
tv69 = 212
requested$ = 256
Barrel_maximumAvailableBarrels PROC			; COMDAT

; 516  : {

$LN5:
  00000	89 4c 24 08	 mov	 DWORD PTR [rsp+8], ecx
  00004	55		 push	 rbp
  00005	57		 push	 rdi
  00006	48 81 ec 08 01
	00 00		 sub	 rsp, 264		; 00000108H
  0000d	48 8d 6c 24 20	 lea	 rbp, QWORD PTR [rsp+32]
  00012	48 8d 0d 00 00
	00 00		 lea	 rcx, OFFSET FLAT:__59E4AADC_tBarrel@c
  00019	e8 00 00 00 00	 call	 __CheckForDebuggerJustMyCode

; 517  : 	uint availableBarrels = Heap_Remaining(GlobalBarrelService._heap) / sizeof(Barrel);

  0001e	48 8b 0d 00 00
	00 00		 mov	 rcx, QWORD PTR GlobalBarrelService
  00025	e8 00 00 00 00	 call	 Heap_Remaining
  0002a	33 d2		 xor	 edx, edx
  0002c	b9 20 00 00 00	 mov	 ecx, 32			; 00000020H
  00031	48 f7 f1	 div	 rcx
  00034	89 45 04	 mov	 DWORD PTR availableBarrels$[rbp], eax

; 518  : 	return availableBarrels < requested ? availableBarrels : requested;

  00037	8b 85 00 01 00
	00		 mov	 eax, DWORD PTR requested$[rbp]
  0003d	39 45 04	 cmp	 DWORD PTR availableBarrels$[rbp], eax
  00040	73 0b		 jae	 SHORT $LN3@Barrel_max
  00042	8b 45 04	 mov	 eax, DWORD PTR availableBarrels$[rbp]
  00045	89 85 d4 00 00
	00		 mov	 DWORD PTR tv69[rbp], eax
  0004b	eb 0c		 jmp	 SHORT $LN4@Barrel_max
$LN3@Barrel_max:
  0004d	8b 85 00 01 00
	00		 mov	 eax, DWORD PTR requested$[rbp]
  00053	89 85 d4 00 00
	00		 mov	 DWORD PTR tv69[rbp], eax
$LN4@Barrel_max:
  00059	8b 85 d4 00 00
	00		 mov	 eax, DWORD PTR tv69[rbp]

; 519  : }

  0005f	48 8d a5 e8 00
	00 00		 lea	 rsp, QWORD PTR [rbp+232]
  00066	5f		 pop	 rdi
  00067	5d		 pop	 rbp
  00068	c3		 ret	 0
Barrel_maximumAvailableBarrels ENDP
_TEXT	ENDS
; Function compile flags: /Odtp /RTCsu /ZI
; File C:\Repos\BarrelTest\tBarrel.c
;	COMDAT Barrel_RemainingSizeCap
_TEXT	SEGMENT
node$ = 224
Barrel_RemainingSizeCap PROC				; COMDAT

; 507  : {

$LN3:
  00000	48 89 4c 24 08	 mov	 QWORD PTR [rsp+8], rcx
  00005	55		 push	 rbp
  00006	57		 push	 rdi
  00007	48 81 ec e8 00
	00 00		 sub	 rsp, 232		; 000000e8H
  0000e	48 8d 6c 24 20	 lea	 rbp, QWORD PTR [rsp+32]
  00013	48 8d 0d 00 00
	00 00		 lea	 rcx, OFFSET FLAT:__59E4AADC_tBarrel@c
  0001a	e8 00 00 00 00	 call	 __CheckForDebuggerJustMyCode

; 508  : 	return (node->_barrelCount * sizeof(Barrel)) - (node->_collection._count * node->_collection._extensions->_type->_size);

  0001f	48 8b 85 e0 00
	00 00		 mov	 rax, QWORD PTR node$[rbp]
  00026	8b 40 10	 mov	 eax, DWORD PTR [rax+16]
  00029	48 6b c0 20	 imul	 rax, rax, 32		; 00000020H
  0002d	48 8b 8d e0 00
	00 00		 mov	 rcx, QWORD PTR node$[rbp]
  00034	8b 49 08	 mov	 ecx, DWORD PTR [rcx+8]
  00037	48 8b 95 e0 00
	00 00		 mov	 rdx, QWORD PTR node$[rbp]
  0003e	48 8b 12	 mov	 rdx, QWORD PTR [rdx]
  00041	48 8b 12	 mov	 rdx, QWORD PTR [rdx]
  00044	48 0f af 4a 08	 imul	 rcx, QWORD PTR [rdx+8]
  00049	48 2b c1	 sub	 rax, rcx

; 509  : }

  0004c	48 8d a5 c8 00
	00 00		 lea	 rsp, QWORD PTR [rbp+200]
  00053	5f		 pop	 rdi
  00054	5d		 pop	 rbp
  00055	c3		 ret	 0
Barrel_RemainingSizeCap ENDP
_TEXT	ENDS
; Function compile flags: /Odtp /RTCsu /ZI
; File C:\Repos\BarrelTest\tBarrel.c
;	COMDAT Barrel_NodeCount
_TEXT	SEGMENT
Barrel_NodeCount PROC					; COMDAT

; 491  : uint Barrel_NodeCount() {

$LN3:
  00000	40 55		 push	 rbp
  00002	57		 push	 rdi
  00003	48 81 ec e8 00
	00 00		 sub	 rsp, 232		; 000000e8H
  0000a	48 8d 6c 24 20	 lea	 rbp, QWORD PTR [rsp+32]
  0000f	48 8d 0d 00 00
	00 00		 lea	 rcx, OFFSET FLAT:__59E4AADC_tBarrel@c
  00016	e8 00 00 00 00	 call	 __CheckForDebuggerJustMyCode

; 492  : 	return GlobalBarrelService.Omegus._barrelCount;

  0001b	8b 05 18 00 00
	00		 mov	 eax, DWORD PTR GlobalBarrelService+24

; 493  : }

  00021	48 8d a5 c8 00
	00 00		 lea	 rsp, QWORD PTR [rbp+200]
  00028	5f		 pop	 rdi
  00029	5d		 pop	 rbp
  0002a	c3		 ret	 0
Barrel_NodeCount ENDP
_TEXT	ENDS
; Function compile flags: /Odtp /RTCsu /ZI
; File C:\Repos\BarrelTest\tBarrel.c
;	COMDAT Barrel_GetUnitPtr
_TEXT	SEGMENT
tv68 = 192
tv80 = 200
nodePtr$ = 240
index$ = 248
Barrel_GetUnitPtr PROC					; COMDAT

; 483  : void* Barrel_GetUnitPtr(BarrelNode* nodePtr, uint index) {

$LN3:
  00000	89 54 24 10	 mov	 DWORD PTR [rsp+16], edx
  00004	48 89 4c 24 08	 mov	 QWORD PTR [rsp+8], rcx
  00009	55		 push	 rbp
  0000a	57		 push	 rdi
  0000b	48 81 ec f8 00
	00 00		 sub	 rsp, 248		; 000000f8H
  00012	48 8d 6c 24 20	 lea	 rbp, QWORD PTR [rsp+32]
  00017	48 8d 0d 00 00
	00 00		 lea	 rcx, OFFSET FLAT:__59E4AADC_tBarrel@c
  0001e	e8 00 00 00 00	 call	 __CheckForDebuggerJustMyCode

; 484  : 	return (void*)(

  00023	48 8b 85 f0 00
	00 00		 mov	 rax, QWORD PTR nodePtr$[rbp]
  0002a	48 63 40 18	 movsxd	 rax, DWORD PTR [rax+24]
  0002e	48 6b c0 20	 imul	 rax, rax, 32		; 00000020H
  00032	48 8b 0d 00 00
	00 00		 mov	 rcx, QWORD PTR GlobalBarrelService
  00039	48 03 41 28	 add	 rax, QWORD PTR [rcx+40]
  0003d	48 89 85 c0 00
	00 00		 mov	 QWORD PTR tv68[rbp], rax
  00044	48 8b 8d f0 00
	00 00		 mov	 rcx, QWORD PTR nodePtr$[rbp]
  0004b	48 8b 09	 mov	 rcx, QWORD PTR [rcx]
  0004e	48 8b 09	 mov	 rcx, QWORD PTR [rcx]
  00051	8b 95 f8 00 00
	00		 mov	 edx, DWORD PTR index$[rbp]
  00057	48 8b 49 08	 mov	 rcx, QWORD PTR [rcx+8]
  0005b	48 0f af ca	 imul	 rcx, rdx
  0005f	48 8b 95 f0 00
	00 00		 mov	 rdx, QWORD PTR nodePtr$[rbp]
  00066	8b 52 14	 mov	 edx, DWORD PTR [rdx+20]
  00069	48 6b d2 20	 imul	 rdx, rdx, 32		; 00000020H
  0006d	48 03 ca	 add	 rcx, rdx
  00070	48 8b 95 f0 00
	00 00		 mov	 rdx, QWORD PTR nodePtr$[rbp]
  00077	8b 52 10	 mov	 edx, DWORD PTR [rdx+16]
  0007a	48 6b d2 20	 imul	 rdx, rdx, 32		; 00000020H
  0007e	48 89 95 c8 00
	00 00		 mov	 QWORD PTR tv80[rbp], rdx
  00085	33 d2		 xor	 edx, edx
  00087	48 8b c1	 mov	 rax, rcx
  0008a	48 8b 8d c8 00
	00 00		 mov	 rcx, QWORD PTR tv80[rbp]
  00091	48 f7 f1	 div	 rcx
  00094	48 8b c2	 mov	 rax, rdx
  00097	48 8b 8d c0 00
	00 00		 mov	 rcx, QWORD PTR tv68[rbp]
  0009e	48 03 c8	 add	 rcx, rax
  000a1	48 8b c1	 mov	 rax, rcx

; 485  : 		((nodePtr->_barrelStart * sizeof(Barrel)) + (ullong)GlobalBarrelService._heap->_heapStart) + // Head
; 486  : 		(((nodePtr->_collection._extensions->_type->_size * index) + (nodePtr->_barrelOffset * sizeof(Barrel))) % // Target
; 487  : 		(nodePtr->_barrelCount * sizeof(Barrel))) // Size
; 488  : 		);
; 489  : }

  000a4	48 8d a5 d8 00
	00 00		 lea	 rsp, QWORD PTR [rbp+216]
  000ab	5f		 pop	 rdi
  000ac	5d		 pop	 rbp
  000ad	c3		 ret	 0
Barrel_GetUnitPtr ENDP
_TEXT	ENDS
; Function compile flags: /Odtp /RTCsu /ZI
; File C:\Repos\BarrelTest\tBarrel.c
;	COMDAT Barrel_GetBarrelPtr
_TEXT	SEGMENT
index$ = 224
Barrel_GetBarrelPtr PROC				; COMDAT

; 479  : inline void* Barrel_GetBarrelPtr(uint index) {

$LN3:
  00000	89 4c 24 08	 mov	 DWORD PTR [rsp+8], ecx
  00004	55		 push	 rbp
  00005	57		 push	 rdi
  00006	48 81 ec e8 00
	00 00		 sub	 rsp, 232		; 000000e8H
  0000d	48 8d 6c 24 20	 lea	 rbp, QWORD PTR [rsp+32]
  00012	48 8d 0d 00 00
	00 00		 lea	 rcx, OFFSET FLAT:__59E4AADC_tBarrel@c
  00019	e8 00 00 00 00	 call	 __CheckForDebuggerJustMyCode

; 480  : 	return (size_t)(GlobalBarrelService._heap->_heapStart) + (index * sizeof(Barrel));

  0001e	8b 85 e0 00 00
	00		 mov	 eax, DWORD PTR index$[rbp]
  00024	48 6b c0 20	 imul	 rax, rax, 32		; 00000020H
  00028	48 8b 0d 00 00
	00 00		 mov	 rcx, QWORD PTR GlobalBarrelService
  0002f	48 03 41 28	 add	 rax, QWORD PTR [rcx+40]

; 481  : }

  00033	48 8d a5 c8 00
	00 00		 lea	 rsp, QWORD PTR [rbp+200]
  0003a	5f		 pop	 rdi
  0003b	5d		 pop	 rbp
  0003c	c3		 ret	 0
Barrel_GetBarrelPtr ENDP
_TEXT	ENDS
; Function compile flags: /Odtp /RTCsu /ZI
; File C:\Repos\BarrelTest\tBarrel.c
;	COMDAT Barrel_GetLastPhysicalNode
_TEXT	SEGMENT
Barrel_GetLastPhysicalNode PROC				; COMDAT

; 466  : inline BarrelNode* Barrel_GetLastPhysicalNode() { return Barrel_GetNode(GlobalBarrelService._lastPhysicalNode); }

$LN3:
  00000	40 55		 push	 rbp
  00002	57		 push	 rdi
  00003	48 81 ec e8 00
	00 00		 sub	 rsp, 232		; 000000e8H
  0000a	48 8d 6c 24 20	 lea	 rbp, QWORD PTR [rsp+32]
  0000f	48 8d 0d 00 00
	00 00		 lea	 rcx, OFFSET FLAT:__59E4AADC_tBarrel@c
  00016	e8 00 00 00 00	 call	 __CheckForDebuggerJustMyCode
  0001b	8b 0d 2c 00 00
	00		 mov	 ecx, DWORD PTR GlobalBarrelService+44
  00021	e8 00 00 00 00	 call	 Barrel_GetNode
  00026	48 8d a5 c8 00
	00 00		 lea	 rsp, QWORD PTR [rbp+200]
  0002d	5f		 pop	 rdi
  0002e	5d		 pop	 rbp
  0002f	c3		 ret	 0
Barrel_GetLastPhysicalNode ENDP
_TEXT	ENDS
; Function compile flags: /Odtp /RTCsu /ZI
; File C:\Repos\BarrelTest\tBarrel.c
;	COMDAT Barrel_GetNode
_TEXT	SEGMENT
tv72 = 192
tv71 = 200
index$ = 240
Barrel_GetNode PROC					; COMDAT

; 460  : {

$LN7:
  00000	89 4c 24 08	 mov	 DWORD PTR [rsp+8], ecx
  00004	55		 push	 rbp
  00005	57		 push	 rdi
  00006	48 81 ec f8 00
	00 00		 sub	 rsp, 248		; 000000f8H
  0000d	48 8d 6c 24 20	 lea	 rbp, QWORD PTR [rsp+32]
  00012	48 8d 0d 00 00
	00 00		 lea	 rcx, OFFSET FLAT:__59E4AADC_tBarrel@c
  00019	e8 00 00 00 00	 call	 __CheckForDebuggerJustMyCode

; 461  : 	return

  0001e	83 bd f0 00 00
	00 ff		 cmp	 DWORD PTR index$[rbp], -1
  00025	75 10		 jne	 SHORT $LN5@Barrel_Get
  00027	48 8d 05 08 00
	00 00		 lea	 rax, OFFSET FLAT:GlobalBarrelService+8
  0002e	48 89 85 c0 00
	00 00		 mov	 QWORD PTR tv72[rbp], rax
  00035	eb 4f		 jmp	 SHORT $LN6@Barrel_Get
$LN5@Barrel_Get:
  00037	83 bd f0 00 00
	00 fe		 cmp	 DWORD PTR index$[rbp], -2
  0003e	7e 2d		 jle	 SHORT $LN3@Barrel_Get
  00040	8b 05 10 00 00
	00		 mov	 eax, DWORD PTR GlobalBarrelService+16
  00046	39 85 f0 00 00
	00		 cmp	 DWORD PTR index$[rbp], eax
  0004c	73 1f		 jae	 SHORT $LN3@Barrel_Get
  0004e	48 63 85 f0 00
	00 00		 movsxd	 rax, DWORD PTR index$[rbp]
  00055	48 6b c0 20	 imul	 rax, rax, 32		; 00000020H
  00059	48 8b 0d 00 00
	00 00		 mov	 rcx, QWORD PTR GlobalBarrelService
  00060	48 03 41 28	 add	 rax, QWORD PTR [rcx+40]
  00064	48 89 85 c8 00
	00 00		 mov	 QWORD PTR tv71[rbp], rax
  0006b	eb 0b		 jmp	 SHORT $LN4@Barrel_Get
$LN3@Barrel_Get:
  0006d	48 c7 85 c8 00
	00 00 00 00 00
	00		 mov	 QWORD PTR tv71[rbp], 0
$LN4@Barrel_Get:
  00078	48 8b 85 c8 00
	00 00		 mov	 rax, QWORD PTR tv71[rbp]
  0007f	48 89 85 c0 00
	00 00		 mov	 QWORD PTR tv72[rbp], rax
$LN6@Barrel_Get:
  00086	48 8b 85 c0 00
	00 00		 mov	 rax, QWORD PTR tv72[rbp]

; 462  : 		index == OMEGA ? &(GlobalBarrelService.Omegus) :
; 463  : 		index <= NONE || index >= GlobalBarrelService.Omegus._collection._count ? NULL :
; 464  : 		&((BarrelNode*)(GlobalBarrelService._heap->_heapStart))[index];
; 465  : }

  0008d	48 8d a5 d8 00
	00 00		 lea	 rsp, QWORD PTR [rbp+216]
  00094	5f		 pop	 rdi
  00095	5d		 pop	 rbp
  00096	c3		 ret	 0
Barrel_GetNode ENDP
_TEXT	ENDS
END
