; Listing generated by Microsoft (R) Optimizing Compiler Version 19.39.33523.0 

include listing.inc

INCLUDELIB MSVCRTD
INCLUDELIB OLDNAMES

msvcjmc	SEGMENT
__9C67CA7D_tEnums@h DB 01H
__EAEE5CFA_tDefines@h DB 01H
__0ED14FEE_winpackagefamily@h DB 01H
__F92EF742_winapifamily@h DB 01H
__22E515EB_sdkddkver@h DB 01H
__FE09AF47_concurrencysal@h DB 01H
__C073CA79_sal@h DB 01H
__D6AFE870_vadefs@h DB 01H
__D63E96CF_vcruntime@h DB 01H
__514B86D7_excpt@h DB 01H
__9A7D38D9_stdarg@h DB 01H
__29F49F40_specstrings_undef@h DB 01H
__D0F42932_specstrings_strict@h DB 01H
__F00405FD_sdv_driverspecs@h DB 01H
__173E09CA_driverspecs@h DB 01H
__9A452361_specstrings@h DB 01H
__1B0272D9_corecrt@h DB 01H
__74484FB3_corecrt_wctype@h DB 01H
__1EC467ED_ctype@h DB 01H
__98517906_kernelspecs@h DB 01H
__D3497022_basetsd@h DB 01H
__61CC25A1_errno@h DB 01H
__3EADF068_vcruntime_string@h DB 01H
__E4C945B4_corecrt_memcpy_s@h DB 01H
__8EAFF484_corecrt_memory@h DB 01H
__6490AEC5_corecrt_wstring@h DB 01H
__E8295E1E_string@h DB 01H
__7FCB5136_guiddef@h DB 01H
__FF8A9E11_pshpack4@h DB 01H
__D5438902_poppack@h DB 01H
__FB07E2A3_pshpack2@h DB 01H
__F6906775_pshpack8@h DB 01H
__F9415CFA_pshpack1@h DB 01H
__E58C6F1C_apiset@h DB 01H
__A5C52262_ktmtypes@h DB 01H
__FBBA8F9D_winnt@h DB 01H
__A32D3D2C_minwindef@h DB 01H
__7D798299_windef@h DB 01H
__9AE108E9_apisetcconv@h DB 01H
__9CE53D2C_minwinbase@h DB 01H
__5D0AA210_apiquery2@h DB 01H
__4DD4E726_processenv@h DB 01H
__3575CC96_fileapi@h DB 01H
__8EA220E6_fileapifromapp@h DB 01H
__BF9B31FE_debugapi@h DB 01H
__C3AFE134_utilapiset@h DB 01H
__76F69E51_handleapi@h DB 01H
__7E63D784_errhandlingapi@h DB 01H
__FFA7003C_fibersapi@h DB 01H
__8971CECF_namedpipeapi@h DB 01H
__46C9D8A6_profileapi@h DB 01H
__98D4F0A3_heapapi@h DB 01H
__50EF2A88_ioapiset@h DB 01H
__92EA1464_synchapi@h DB 01H
__A53D8AED_interlockedapi@h DB 01H
__B506CAAF_processthreadsapi@h DB 01H
__FF735694_sysinfoapi@h DB 01H
__29589789_memoryapi@h DB 01H
__E9C7A663_enclaveapi@h DB 01H
__D035F9F7_threadpoollegacyapiset@h DB 01H
__C899130C_threadpoolapiset@h DB 01H
__E0441EE7_jobapi@h DB 01H
__CEF86838_jobapi2@h DB 01H
__35AC6B9A_wow64apiset@h DB 01H
__C8AE41A5_libloaderapi@h DB 01H
__CC9E232D_securitybaseapi@h DB 01H
__C9D0C9B8_namespaceapi@h DB 01H
__30FF9CAD_systemtopologyapi@h DB 01H
__4D358795_processtopologyapi@h DB 01H
__40446D10_securityappcontainer@h DB 01H
__3A952EDF_realtimeapiset@h DB 01H
__F4865F4B_winerror@h DB 01H
__53C1BD93_timezoneapi@h DB 01H
__1FFBEDBF_winbase@h DB 01H
__43D3FA34_wingdi@h DB 01H
__D24A7391_tvout@h DB 01H
__7713A6C8_winuser@h DB 01H
__0B345F71_datetimeapi@h DB 01H
__9AC6960C_winnls@h DB 01H
__973A40A8_stringapiset@h DB 01H
__CC46FEE2_wincontypes@h DB 01H
__97D70BE1_consoleapi@h DB 01H
__27EC5E18_consoleapi2@h DB 01H
__262E342F_consoleapi3@h DB 01H
__641DCD70_wincon@h DB 01H
__5A96C7A7_verrsrc@h DB 01H
__B69C6FF2_winver@h DB 01H
__7AEB8C37_reason@h DB 01H
__59F1A8A9_winreg@h DB 01H
__EE0E2B7F_wnnc@h DB 01H
__DCDB7054_winnetwk@h DB 01H
__EDC72EEB_cderr@h DB 01H
__95F9199D_dde@h DB 01H
__66427627_ddeml@h DB 01H
__957C29A0_dlgs@h DB 01H
__12EA15AF_lzexpand@h DB 01H
__62131F15_mmsyscom@h DB 01H
__47E68D49_mciapi@h DB 01H
__5D7DD356_mmiscapi@h DB 01H
__7223D2EF_mmiscapi2@h DB 01H
__A330DBB3_playsoundapi@h DB 01H
__601B366F_mmeapi@h DB 01H
__1134ADD5_timeapi@h DB 01H
__93F2265A_joystickapi@h DB 01H
__DF6EB4E3_mmsystem@h DB 01H
__BD641FCB_nb30@h DB 01H
__DF8704F0_rpcdcep@h DB 01H
__5C6CA7BB_rpcdce@h DB 01H
__853533C4_rpcnsi@h DB 01H
__2D2406C3_rpcnterr@h DB 01H
__64521D71_rpcasync@h DB 01H
__AADCBA08_rpc@h DB 01H
__19E26CFF_shellapi@h DB 01H
__1E9F31D3_winperf@h DB 01H
__832A4112_inaddr@h DB 01H
__32C6F875_winsock@h DB 01H
__7953A3F8_bcrypt@h DB 01H
__E4169492_ncrypt@h DB 01H
__AF3DDDC3_dpapi@h DB 01H
__D1E23BF2_wincrypt@h DB 01H
__82AB4779_winefs@h DB 01H
__1FE431C9_rpcnsip@h DB 01H
__2B741F2D_rpcsal@h DB 01H
__92623256_rpcndr@h DB 01H
__9C18532E_wtypesbase@h DB 01H
__EA2E1D6D_wtypes@h DB 01H
__7DDD9F45_winioctl@h DB 01H
__E550A843_winsmcrd@h DB 01H
__9809C1BA_winscard@h DB 01H
__EA174FA4_prsht@h DB 01H
__0E1BD114_winspool@h DB 01H
__45DED006_corecrt_malloc@h DB 01H
__13F5961F_stddef@h DB 01H
__FD6DBD68_corecrt_search@h DB 01H
__E2E33A61_corecrt_wstdlib@h DB 01H
__10D4A829_limits@h DB 01H
__6E5ACABA_stdlib@h DB 01H
__30B1AFDA_unknwnbase@h DB 01H
__328C1996_objidlbase@h DB 01H
__C4E06B6A_cguid@h DB 01H
__434718C5_combaseapi@h DB 01H
__DE6FDEF1_unknwn@h DB 01H
__CCE0BACC_objidl@h DB 01H
__8C7011E5_oaidl@h DB 01H
__2E0B7863_propidlbase@h DB 01H
__BF4CF2EC_coml2api@h DB 01H
__6D897344_oleidl@h DB 01H
__1129FC2C_servprov@h DB 01H
__757952E4_msxml@h DB 01H
__B1191D53_urlmon@h DB 01H
__404D1A47_propidl@h DB 01H
__A1C63593_objbase@h DB 01H
__C1B0A9CB_oleauto@h DB 01H
__24EAF61F_ole2@h DB 01H
__2B1843DA_commdlg@h DB 01H
__81DDEDE3_stralign@h DB 01H
__2134D1B4_winsvc@h DB 01H
__11C07376_mcx@h DB 01H
__577CE3E7_ime_cmodes@h DB 01H
__1E72C31E_imm@h DB 01H
__63AA7AF5_Windows@h DB 01H
__4EC676C0_tModules@h DB 01H
__AFB9CF29_tPreent@h DB 01H
__366DFDC4_tHelpers@h DB 01H
__296E417C_tChunk@h DB 01H
__BEBC98F4_tChunk@c DB 01H
msvcjmc	ENDS
PUBLIC	Chunk_Create
PUBLIC	Chunk_ctor
PUBLIC	Chunk_Clone
PUBLIC	__JustMyCode_Default
EXTRN	rawTranscribe:PROC
EXTRN	_RTC_CheckStackVars:PROC
EXTRN	_RTC_InitBase:PROC
EXTRN	_RTC_Shutdown:PROC
EXTRN	__CheckForDebuggerJustMyCode:PROC
EXTRN	__GSHandlerCheck:PROC
EXTRN	__security_check_cookie:PROC
EXTRN	__security_cookie:QWORD
;	COMDAT pdata
pdata	SEGMENT
$pdata$Chunk_Create DD imagerel $LN3
	DD	imagerel $LN3+140
	DD	imagerel $unwind$Chunk_Create
pdata	ENDS
;	COMDAT pdata
pdata	SEGMENT
$pdata$Chunk_ctor DD imagerel $LN3
	DD	imagerel $LN3+191
	DD	imagerel $unwind$Chunk_ctor
pdata	ENDS
;	COMDAT pdata
pdata	SEGMENT
$pdata$Chunk_Clone DD imagerel $LN3
	DD	imagerel $LN3+79
	DD	imagerel $unwind$Chunk_Clone
pdata	ENDS
;	COMDAT rtc$TMZ
rtc$TMZ	SEGMENT
_RTC_Shutdown.rtc$TMZ DQ FLAT:_RTC_Shutdown
rtc$TMZ	ENDS
;	COMDAT rtc$IMZ
rtc$IMZ	SEGMENT
_RTC_InitBase.rtc$IMZ DQ FLAT:_RTC_InitBase
rtc$IMZ	ENDS
;	COMDAT xdata
xdata	SEGMENT
$unwind$Chunk_Clone DD 025051801H
	DD	01132318H
	DD	0700c001dH
	DD	0500bH
xdata	ENDS
;	COMDAT voltbl
voltbl	SEGMENT
_volmd	DB	041H
	DB	0a5H
voltbl	ENDS
;	COMDAT xdata
xdata	SEGMENT
$unwind$Chunk_ctor DD 025064819H
	DD	0119231eH
	DD	070120028H
	DD	050106011H
	DD	imagerel __GSHandlerCheck
	DD	0138H
xdata	ENDS
;	COMDAT CONST
CONST	SEGMENT
Chunk_ctor$rtcName$0 DB 074H
	DB	06dH
	DB	070H
	DB	00H
	ORG $+12
Chunk_ctor$rtcVarDesc DD 028H
	DD	010H
	DQ	FLAT:Chunk_ctor$rtcName$0
	ORG $+48
Chunk_ctor$rtcFrameData DD 01H
	DD	00H
	DQ	FLAT:Chunk_ctor$rtcVarDesc
CONST	ENDS
;	COMDAT xdata
xdata	SEGMENT
$unwind$Chunk_Create DD 025053601H
	DD	0118231dH
	DD	070110027H
	DD	05010H
xdata	ENDS
;	COMDAT CONST
CONST	SEGMENT
Chunk_Create$rtcName$0 DB 024H
	DB	053H
	DB	031H
	DB	00H
	ORG $+4
Chunk_Create$rtcName$1 DB 05fH
	DB	05fH
	DB	024H
	DB	041H
	DB	072H
	DB	072H
	DB	061H
	DB	079H
	DB	050H
	DB	061H
	DB	064H
	DB	00H
	ORG $+12
Chunk_Create$rtcVarDesc DD 058H
	DD	08H
	DQ	FLAT:Chunk_Create$rtcName$1
	DD	028H
	DD	010H
	DQ	FLAT:Chunk_Create$rtcName$0
	ORG $+96
Chunk_Create$rtcFrameData DD 02H
	DD	00H
	DQ	FLAT:Chunk_Create$rtcVarDesc
CONST	ENDS
; Function compile flags: /Odt
;	COMDAT __JustMyCode_Default
_TEXT	SEGMENT
__JustMyCode_Default PROC				; COMDAT
  00000	c2 00 00	 ret	 0
__JustMyCode_Default ENDP
_TEXT	ENDS
; Function compile flags: /Odtp /RTCsu /ZI
; File C:\Repos\BarrelTest\tChunk.c
;	COMDAT Chunk_Clone
_TEXT	SEGMENT
trg$ = 224
src$ = 232
Chunk_Clone PROC					; COMDAT

; 38   : {

$LN3:
  00000	48 89 54 24 10	 mov	 QWORD PTR [rsp+16], rdx
  00005	48 89 4c 24 08	 mov	 QWORD PTR [rsp+8], rcx
  0000a	55		 push	 rbp
  0000b	57		 push	 rdi
  0000c	48 81 ec e8 00
	00 00		 sub	 rsp, 232		; 000000e8H
  00013	48 8d 6c 24 20	 lea	 rbp, QWORD PTR [rsp+32]
  00018	48 8d 0d 00 00
	00 00		 lea	 rcx, OFFSET FLAT:__BEBC98F4_tChunk@c
  0001f	e8 00 00 00 00	 call	 __CheckForDebuggerJustMyCode

; 39   : 	Chunk_ctor(trg, (size_t)(src->_head), src->_size);

  00024	48 8b 85 e8 00
	00 00		 mov	 rax, QWORD PTR src$[rbp]
  0002b	4c 8b 40 08	 mov	 r8, QWORD PTR [rax+8]
  0002f	48 8b 85 e8 00
	00 00		 mov	 rax, QWORD PTR src$[rbp]
  00036	48 8b 10	 mov	 rdx, QWORD PTR [rax]
  00039	48 8b 8d e0 00
	00 00		 mov	 rcx, QWORD PTR trg$[rbp]
  00040	e8 00 00 00 00	 call	 Chunk_ctor

; 40   : }

  00045	48 8d a5 c8 00
	00 00		 lea	 rsp, QWORD PTR [rbp+200]
  0004c	5f		 pop	 rdi
  0004d	5d		 pop	 rbp
  0004e	c3		 ret	 0
Chunk_Clone ENDP
_TEXT	ENDS
; Function compile flags: /Odtp /RTCsu /ZI
; File C:\Repos\BarrelTest\tChunk.c
;	COMDAT Chunk_ctor
_TEXT	SEGMENT
tmp$ = 8
$T4 = 248
__$ArrayPad$ = 280
loc$ = 320
head$ = 328
size$ = 336
Chunk_ctor PROC						; COMDAT

; 32   : {

$LN3:
  00000	4c 89 44 24 18	 mov	 QWORD PTR [rsp+24], r8
  00005	48 89 54 24 10	 mov	 QWORD PTR [rsp+16], rdx
  0000a	48 89 4c 24 08	 mov	 QWORD PTR [rsp+8], rcx
  0000f	55		 push	 rbp
  00010	56		 push	 rsi
  00011	57		 push	 rdi
  00012	48 81 ec 40 01
	00 00		 sub	 rsp, 320		; 00000140H
  00019	48 8d 6c 24 20	 lea	 rbp, QWORD PTR [rsp+32]
  0001e	48 8d 7c 24 20	 lea	 rdi, QWORD PTR [rsp+32]
  00023	b9 18 00 00 00	 mov	 ecx, 24
  00028	b8 cc cc cc cc	 mov	 eax, -858993460		; ccccccccH
  0002d	f3 ab		 rep stosd
  0002f	48 8b 8c 24 68
	01 00 00	 mov	 rcx, QWORD PTR [rsp+360]
  00037	48 8b 05 00 00
	00 00		 mov	 rax, QWORD PTR __security_cookie
  0003e	48 33 c5	 xor	 rax, rbp
  00041	48 89 85 18 01
	00 00		 mov	 QWORD PTR __$ArrayPad$[rbp], rax
  00048	48 8d 0d 00 00
	00 00		 lea	 rcx, OFFSET FLAT:__BEBC98F4_tChunk@c
  0004f	e8 00 00 00 00	 call	 __CheckForDebuggerJustMyCode

; 33   : 	Chunk tmp = Chunk_Create(head, size);

  00054	4c 8b 85 50 01
	00 00		 mov	 r8, QWORD PTR size$[rbp]
  0005b	48 8b 95 48 01
	00 00		 mov	 rdx, QWORD PTR head$[rbp]
  00062	48 8d 8d f8 00
	00 00		 lea	 rcx, QWORD PTR $T4[rbp]
  00069	e8 00 00 00 00	 call	 Chunk_Create
  0006e	48 8d 4d 08	 lea	 rcx, QWORD PTR tmp$[rbp]
  00072	48 8b f9	 mov	 rdi, rcx
  00075	48 8b f0	 mov	 rsi, rax
  00078	b9 10 00 00 00	 mov	 ecx, 16
  0007d	f3 a4		 rep movsb

; 34   : 	rawTranscribe(loc, &tmp, sizeof(Chunk));

  0007f	41 b8 10 00 00
	00		 mov	 r8d, 16
  00085	48 8d 55 08	 lea	 rdx, QWORD PTR tmp$[rbp]
  00089	48 8b 8d 40 01
	00 00		 mov	 rcx, QWORD PTR loc$[rbp]
  00090	e8 00 00 00 00	 call	 rawTranscribe

; 35   : }

  00095	48 8d 4d e0	 lea	 rcx, QWORD PTR [rbp-32]
  00099	48 8d 15 00 00
	00 00		 lea	 rdx, OFFSET FLAT:Chunk_ctor$rtcFrameData
  000a0	e8 00 00 00 00	 call	 _RTC_CheckStackVars
  000a5	48 8b 8d 18 01
	00 00		 mov	 rcx, QWORD PTR __$ArrayPad$[rbp]
  000ac	48 33 cd	 xor	 rcx, rbp
  000af	e8 00 00 00 00	 call	 __security_check_cookie
  000b4	48 8d a5 20 01
	00 00		 lea	 rsp, QWORD PTR [rbp+288]
  000bb	5f		 pop	 rdi
  000bc	5e		 pop	 rsi
  000bd	5d		 pop	 rbp
  000be	c3		 ret	 0
Chunk_ctor ENDP
_TEXT	ENDS
; Function compile flags: /Odtp /RTCsu /ZI
; File C:\Repos\BarrelTest\tChunk.c
;	COMDAT Chunk_Create
_TEXT	SEGMENT
__$ReturnAddress$ = 304
head$ = 312
size$ = 320
Chunk_Create PROC					; COMDAT

; 24   : Chunk Chunk_Create(void* head, size_t size) {

$LN3:
  00000	4c 89 44 24 18	 mov	 QWORD PTR [rsp+24], r8
  00005	48 89 54 24 10	 mov	 QWORD PTR [rsp+16], rdx
  0000a	48 89 4c 24 08	 mov	 QWORD PTR [rsp+8], rcx
  0000f	55		 push	 rbp
  00010	57		 push	 rdi
  00011	48 81 ec 38 01
	00 00		 sub	 rsp, 312		; 00000138H
  00018	48 8d 6c 24 20	 lea	 rbp, QWORD PTR [rsp+32]
  0001d	48 8d 7c 24 20	 lea	 rdi, QWORD PTR [rsp+32]
  00022	b9 16 00 00 00	 mov	 ecx, 22
  00027	b8 cc cc cc cc	 mov	 eax, -858993460		; ccccccccH
  0002c	f3 ab		 rep stosd
  0002e	48 8b 8c 24 58
	01 00 00	 mov	 rcx, QWORD PTR [rsp+344]
  00036	48 8d 0d 00 00
	00 00		 lea	 rcx, OFFSET FLAT:__BEBC98F4_tChunk@c
  0003d	e8 00 00 00 00	 call	 __CheckForDebuggerJustMyCode

; 25   : 	return (Chunk) {

  00042	48 8b 85 30 01
	00 00		 mov	 rax, QWORD PTR __$ReturnAddress$[rbp]
  00049	48 8b 8d 38 01
	00 00		 mov	 rcx, QWORD PTR head$[rbp]
  00050	48 89 08	 mov	 QWORD PTR [rax], rcx
  00053	48 8b 85 30 01
	00 00		 mov	 rax, QWORD PTR __$ReturnAddress$[rbp]
  0005a	48 8b 8d 40 01
	00 00		 mov	 rcx, QWORD PTR size$[rbp]
  00061	48 89 48 08	 mov	 QWORD PTR [rax+8], rcx
  00065	48 8b 85 30 01
	00 00		 mov	 rax, QWORD PTR __$ReturnAddress$[rbp]

; 26   : 			head,
; 27   : 			size
; 28   : 	};
; 29   : }

  0006c	48 8b f8	 mov	 rdi, rax
  0006f	48 8d 4d e0	 lea	 rcx, QWORD PTR [rbp-32]
  00073	48 8d 15 00 00
	00 00		 lea	 rdx, OFFSET FLAT:Chunk_Create$rtcFrameData
  0007a	e8 00 00 00 00	 call	 _RTC_CheckStackVars
  0007f	48 8b c7	 mov	 rax, rdi
  00082	48 8d a5 18 01
	00 00		 lea	 rsp, QWORD PTR [rbp+280]
  00089	5f		 pop	 rdi
  0008a	5d		 pop	 rbp
  0008b	c3		 ret	 0
Chunk_Create ENDP
_TEXT	ENDS
END
