; Listing generated by Microsoft (R) Optimizing Compiler Version 19.39.33523.0 

include listing.inc

INCLUDELIB MSVCRTD
INCLUDELIB OLDNAMES

_DATA	SEGMENT
COMM	ThreadHandle_TypeID:BYTE:018H
_DATA	ENDS
msvcjmc	SEGMENT
__9C67CA7D_tEnums@h DB 01H
__EAEE5CFA_tDefines@h DB 01H
__0ED14FEE_winpackagefamily@h DB 01H
__F92EF742_winapifamily@h DB 01H
__22E515EB_sdkddkver@h DB 01H
__FE09AF47_concurrencysal@h DB 01H
__C073CA79_sal@h DB 01H
__D6AFE870_vadefs@h DB 01H
__D63E96CF_vcruntime@h DB 01H
__514B86D7_excpt@h DB 01H
__9A7D38D9_stdarg@h DB 01H
__29F49F40_specstrings_undef@h DB 01H
__D0F42932_specstrings_strict@h DB 01H
__F00405FD_sdv_driverspecs@h DB 01H
__173E09CA_driverspecs@h DB 01H
__9A452361_specstrings@h DB 01H
__1B0272D9_corecrt@h DB 01H
__74484FB3_corecrt_wctype@h DB 01H
__1EC467ED_ctype@h DB 01H
__98517906_kernelspecs@h DB 01H
__D3497022_basetsd@h DB 01H
__61CC25A1_errno@h DB 01H
__3EADF068_vcruntime_string@h DB 01H
__E4C945B4_corecrt_memcpy_s@h DB 01H
__8EAFF484_corecrt_memory@h DB 01H
__6490AEC5_corecrt_wstring@h DB 01H
__E8295E1E_string@h DB 01H
__7FCB5136_guiddef@h DB 01H
__FF8A9E11_pshpack4@h DB 01H
__D5438902_poppack@h DB 01H
__FB07E2A3_pshpack2@h DB 01H
__F6906775_pshpack8@h DB 01H
__F9415CFA_pshpack1@h DB 01H
__E58C6F1C_apiset@h DB 01H
__A5C52262_ktmtypes@h DB 01H
__FBBA8F9D_winnt@h DB 01H
__A32D3D2C_minwindef@h DB 01H
__7D798299_windef@h DB 01H
__9AE108E9_apisetcconv@h DB 01H
__9CE53D2C_minwinbase@h DB 01H
__5D0AA210_apiquery2@h DB 01H
__4DD4E726_processenv@h DB 01H
__3575CC96_fileapi@h DB 01H
__8EA220E6_fileapifromapp@h DB 01H
__BF9B31FE_debugapi@h DB 01H
__C3AFE134_utilapiset@h DB 01H
__76F69E51_handleapi@h DB 01H
__7E63D784_errhandlingapi@h DB 01H
__FFA7003C_fibersapi@h DB 01H
__8971CECF_namedpipeapi@h DB 01H
__46C9D8A6_profileapi@h DB 01H
__98D4F0A3_heapapi@h DB 01H
__50EF2A88_ioapiset@h DB 01H
__92EA1464_synchapi@h DB 01H
__A53D8AED_interlockedapi@h DB 01H
__B506CAAF_processthreadsapi@h DB 01H
__FF735694_sysinfoapi@h DB 01H
__29589789_memoryapi@h DB 01H
__E9C7A663_enclaveapi@h DB 01H
__D035F9F7_threadpoollegacyapiset@h DB 01H
__C899130C_threadpoolapiset@h DB 01H
__E0441EE7_jobapi@h DB 01H
__CEF86838_jobapi2@h DB 01H
__35AC6B9A_wow64apiset@h DB 01H
__C8AE41A5_libloaderapi@h DB 01H
__CC9E232D_securitybaseapi@h DB 01H
__C9D0C9B8_namespaceapi@h DB 01H
__30FF9CAD_systemtopologyapi@h DB 01H
__4D358795_processtopologyapi@h DB 01H
__40446D10_securityappcontainer@h DB 01H
__3A952EDF_realtimeapiset@h DB 01H
__F4865F4B_winerror@h DB 01H
__53C1BD93_timezoneapi@h DB 01H
__1FFBEDBF_winbase@h DB 01H
__43D3FA34_wingdi@h DB 01H
__D24A7391_tvout@h DB 01H
__7713A6C8_winuser@h DB 01H
__0B345F71_datetimeapi@h DB 01H
__9AC6960C_winnls@h DB 01H
__973A40A8_stringapiset@h DB 01H
__CC46FEE2_wincontypes@h DB 01H
__97D70BE1_consoleapi@h DB 01H
__27EC5E18_consoleapi2@h DB 01H
__262E342F_consoleapi3@h DB 01H
__641DCD70_wincon@h DB 01H
__5A96C7A7_verrsrc@h DB 01H
__B69C6FF2_winver@h DB 01H
__7AEB8C37_reason@h DB 01H
__59F1A8A9_winreg@h DB 01H
__EE0E2B7F_wnnc@h DB 01H
__DCDB7054_winnetwk@h DB 01H
__EDC72EEB_cderr@h DB 01H
__95F9199D_dde@h DB 01H
__66427627_ddeml@h DB 01H
__957C29A0_dlgs@h DB 01H
__12EA15AF_lzexpand@h DB 01H
__62131F15_mmsyscom@h DB 01H
__47E68D49_mciapi@h DB 01H
__5D7DD356_mmiscapi@h DB 01H
__7223D2EF_mmiscapi2@h DB 01H
__A330DBB3_playsoundapi@h DB 01H
__601B366F_mmeapi@h DB 01H
__1134ADD5_timeapi@h DB 01H
__93F2265A_joystickapi@h DB 01H
__DF6EB4E3_mmsystem@h DB 01H
__BD641FCB_nb30@h DB 01H
__DF8704F0_rpcdcep@h DB 01H
__5C6CA7BB_rpcdce@h DB 01H
__853533C4_rpcnsi@h DB 01H
__2D2406C3_rpcnterr@h DB 01H
__64521D71_rpcasync@h DB 01H
__AADCBA08_rpc@h DB 01H
__19E26CFF_shellapi@h DB 01H
__1E9F31D3_winperf@h DB 01H
__832A4112_inaddr@h DB 01H
__32C6F875_winsock@h DB 01H
__7953A3F8_bcrypt@h DB 01H
__E4169492_ncrypt@h DB 01H
__AF3DDDC3_dpapi@h DB 01H
__D1E23BF2_wincrypt@h DB 01H
__82AB4779_winefs@h DB 01H
__1FE431C9_rpcnsip@h DB 01H
__2B741F2D_rpcsal@h DB 01H
__92623256_rpcndr@h DB 01H
__9C18532E_wtypesbase@h DB 01H
__EA2E1D6D_wtypes@h DB 01H
__7DDD9F45_winioctl@h DB 01H
__E550A843_winsmcrd@h DB 01H
__9809C1BA_winscard@h DB 01H
__EA174FA4_prsht@h DB 01H
__0E1BD114_winspool@h DB 01H
__45DED006_corecrt_malloc@h DB 01H
__13F5961F_stddef@h DB 01H
__FD6DBD68_corecrt_search@h DB 01H
__E2E33A61_corecrt_wstdlib@h DB 01H
__10D4A829_limits@h DB 01H
__6E5ACABA_stdlib@h DB 01H
__30B1AFDA_unknwnbase@h DB 01H
__328C1996_objidlbase@h DB 01H
__C4E06B6A_cguid@h DB 01H
__434718C5_combaseapi@h DB 01H
__DE6FDEF1_unknwn@h DB 01H
__CCE0BACC_objidl@h DB 01H
__8C7011E5_oaidl@h DB 01H
__2E0B7863_propidlbase@h DB 01H
__BF4CF2EC_coml2api@h DB 01H
__6D897344_oleidl@h DB 01H
__1129FC2C_servprov@h DB 01H
__757952E4_msxml@h DB 01H
__B1191D53_urlmon@h DB 01H
__404D1A47_propidl@h DB 01H
__A1C63593_objbase@h DB 01H
__C1B0A9CB_oleauto@h DB 01H
__24EAF61F_ole2@h DB 01H
__2B1843DA_commdlg@h DB 01H
__81DDEDE3_stralign@h DB 01H
__2134D1B4_winsvc@h DB 01H
__11C07376_mcx@h DB 01H
__577CE3E7_ime_cmodes@h DB 01H
__1E72C31E_imm@h DB 01H
__63AA7AF5_Windows@h DB 01H
__4EC676C0_tModules@h DB 01H
__AFB9CF29_tPreent@h DB 01H
__366DFDC4_tHelpers@h DB 01H
__D300D227_tTypeInfo@h DB 01H
__03948348_tThreads@h DB 01H
__94465AC0_tThreads@c DB 01H
msvcjmc	ENDS
PUBLIC	ThreadHandle_ctor
PUBLIC	__JustMyCode_Default
EXTRN	__imp_CreateThread:PROC
EXTRN	_RTC_InitBase:PROC
EXTRN	_RTC_Shutdown:PROC
EXTRN	__CheckForDebuggerJustMyCode:PROC
;	COMDAT pdata
pdata	SEGMENT
$pdata$ThreadHandle_ctor DD imagerel $LN7
	DD	imagerel $LN7+226
	DD	imagerel $unwind$ThreadHandle_ctor
pdata	ENDS
;	COMDAT rtc$TMZ
rtc$TMZ	SEGMENT
_RTC_Shutdown.rtc$TMZ DQ FLAT:_RTC_Shutdown
rtc$TMZ	ENDS
;	COMDAT rtc$IMZ
rtc$IMZ	SEGMENT
_RTC_InitBase.rtc$IMZ DQ FLAT:_RTC_InitBase
rtc$IMZ	ENDS
;	COMDAT xdata
xdata	SEGMENT
$unwind$ThreadHandle_ctor DD 035052201H
	DD	011d3322H
	DD	070160021H
	DD	05015H
xdata	ENDS
; Function compile flags: /Odt
;	COMDAT __JustMyCode_Default
_TEXT	SEGMENT
__JustMyCode_Default PROC				; COMDAT
  00000	c2 00 00	 ret	 0
__JustMyCode_Default ENDP
_TEXT	ENDS
; Function compile flags: /Odtp /RTCsu /ZI
; File C:\Repos\BarrelTest\tThreads.c
;	COMDAT ThreadHandle_ctor
_TEXT	SEGMENT
tv80 = 192
threadHandle$ = 240
service$ = 248
workEntry$ = 256
offset$ = 264
ThreadHandle_ctor PROC					; COMDAT

; 6    : {

$LN7:
  00000	44 89 4c 24 20	 mov	 DWORD PTR [rsp+32], r9d
  00005	4c 89 44 24 18	 mov	 QWORD PTR [rsp+24], r8
  0000a	48 89 54 24 10	 mov	 QWORD PTR [rsp+16], rdx
  0000f	48 89 4c 24 08	 mov	 QWORD PTR [rsp+8], rcx
  00014	55		 push	 rbp
  00015	57		 push	 rdi
  00016	48 81 ec 08 01
	00 00		 sub	 rsp, 264		; 00000108H
  0001d	48 8d 6c 24 30	 lea	 rbp, QWORD PTR [rsp+48]
  00022	48 8d 0d 00 00
	00 00		 lea	 rcx, OFFSET FLAT:__94465AC0_tThreads@c
  00029	e8 00 00 00 00	 call	 __CheckForDebuggerJustMyCode

; 7    : 	if (!threadHandle || !service || !workEntry)

  0002e	48 83 bd f0 00
	00 00 00	 cmp	 QWORD PTR threadHandle$[rbp], 0
  00036	74 14		 je	 SHORT $LN3@ThreadHand
  00038	48 83 bd f8 00
	00 00 00	 cmp	 QWORD PTR service$[rbp], 0
  00040	74 0a		 je	 SHORT $LN3@ThreadHand
  00042	48 83 bd 00 01
	00 00 00	 cmp	 QWORD PTR workEntry$[rbp], 0
  0004a	75 07		 jne	 SHORT $LN2@ThreadHand
$LN3@ThreadHand:

; 8    : 		return false;

  0004c	33 c0		 xor	 eax, eax
  0004e	e9 85 00 00 00	 jmp	 $LN1@ThreadHand
$LN2@ThreadHand:

; 9    : 
; 10   : 	threadHandle->_service = service;

  00053	48 8b 85 f0 00
	00 00		 mov	 rax, QWORD PTR threadHandle$[rbp]
  0005a	48 8b 8d f8 00
	00 00		 mov	 rcx, QWORD PTR service$[rbp]
  00061	48 89 48 10	 mov	 QWORD PTR [rax+16], rcx

; 11   : 	threadHandle->_offset = offset;

  00065	48 8b 85 f0 00
	00 00		 mov	 rax, QWORD PTR threadHandle$[rbp]
  0006c	8b 8d 08 01 00
	00		 mov	 ecx, DWORD PTR offset$[rbp]
  00072	89 48 18	 mov	 DWORD PTR [rax+24], ecx

; 12   : 	threadHandle->_handle = CreateThread(NULL, 0, workEntry, threadHandle, 0, &(threadHandle->_ID));

  00075	48 8b 85 f0 00
	00 00		 mov	 rax, QWORD PTR threadHandle$[rbp]
  0007c	48 83 c0 08	 add	 rax, 8
  00080	48 89 44 24 28	 mov	 QWORD PTR [rsp+40], rax
  00085	c7 44 24 20 00
	00 00 00	 mov	 DWORD PTR [rsp+32], 0
  0008d	4c 8b 8d f0 00
	00 00		 mov	 r9, QWORD PTR threadHandle$[rbp]
  00094	4c 8b 85 00 01
	00 00		 mov	 r8, QWORD PTR workEntry$[rbp]
  0009b	33 d2		 xor	 edx, edx
  0009d	33 c9		 xor	 ecx, ecx
  0009f	ff 15 00 00 00
	00		 call	 QWORD PTR __imp_CreateThread
  000a5	48 8b 8d f0 00
	00 00		 mov	 rcx, QWORD PTR threadHandle$[rbp]
  000ac	48 89 01	 mov	 QWORD PTR [rcx], rax

; 13   : 
; 14   : 	return (threadHandle->_handle) != NULL;

  000af	48 8b 85 f0 00
	00 00		 mov	 rax, QWORD PTR threadHandle$[rbp]
  000b6	48 83 38 00	 cmp	 QWORD PTR [rax], 0
  000ba	74 0c		 je	 SHORT $LN5@ThreadHand
  000bc	c7 85 c0 00 00
	00 01 00 00 00	 mov	 DWORD PTR tv80[rbp], 1
  000c6	eb 0a		 jmp	 SHORT $LN6@ThreadHand
$LN5@ThreadHand:
  000c8	c7 85 c0 00 00
	00 00 00 00 00	 mov	 DWORD PTR tv80[rbp], 0
$LN6@ThreadHand:
  000d2	8b 85 c0 00 00
	00		 mov	 eax, DWORD PTR tv80[rbp]
$LN1@ThreadHand:

; 15   : }

  000d8	48 8d a5 d8 00
	00 00		 lea	 rsp, QWORD PTR [rbp+216]
  000df	5f		 pop	 rdi
  000e0	5d		 pop	 rbp
  000e1	c3		 ret	 0
ThreadHandle_ctor ENDP
_TEXT	ENDS
END
